(lp1
(dp2
(I9
I26
tp3
I2
s(I14
I17
tp4
I2
s(I14
I20
tp5
I2
s(I17
I7
tp6
I2
s(I16
I9
tp7
I2
s(I6
I28
tp8
I2
s(I6
I17
tp9
I2
s(I12
I12
tp10
I2
s(I11
I28
tp11
I2
s(I6
I9
tp12
I2
s(I16
I28
tp13
I2
s(I13
I17
tp14
I2
s(I18
I19
tp15
I2
s(I13
I30
tp16
I2
s(I18
I30
tp17
I2
s(I16
I19
tp18
I2
s(I13
I32
tp19
I2
s(I6
I7
tp20
I2
s(I4
I19
tp21
I2
s(I10
I7
tp22
I2
s(I9
I21
tp23
I2
s(I15
I30
tp24
I2
s(I4
I8
tp25
I2
s(I11
I22
tp26
I2
s(I16
I22
tp27
I2
s(I13
I7
tp28
I2
s(I12
I17
tp29
I2
s(I18
I9
tp30
I2
s(I7
I28
tp31
I2
s(I13
I20
tp32
I2
s(I12
I28
tp33
I2
s(I18
I20
tp34
I2
s(I8
I15
tp35
I2
s(I13
I29
tp36
I2
s(I14
I18
tp37
I2
s(I9
I14
tp38
I2
s(I15
I18
tp39
I2
s(I6
I22
tp40
I2
s(I8
I21
tp41
I2
s(I14
I24
tp42
I2
s(I4
I16
tp43
I2
s(I10
I24
tp44
I2
s(I9
I16
tp45
I2
s(I15
I29
tp46
I2
s(I6
I23
tp47
I2
s(I11
I21
tp48
I2
s(I7
I22
tp49
I2
s(I6
I26
tp50
I2
s(I12
I22
tp51
I2
s(I18
I10
tp52
I2
s(I18
I25
tp53
I2
s(I8
I12
tp54
I2
s(I4
I15
tp55
I2
s(I9
I9
tp56
I2
s(I7
I23
tp57
I2
s(I4
I26
tp58
I2
s(I9
I30
tp59
I2
s(I8
I18
tp60
I2
s(I14
I21
tp61
I2
s(I4
I21
tp62
I2
s(I11
I15
tp63
I2
s(I10
I29
tp64
I2
s(I9
I19
tp65
I2
s(I15
I16
tp66
I2
s(I6
I16
tp67
I2
s(I4
I32
tp68
I2
s(I11
I16
tp69
I2
s(I7
I21
tp70
I2
s(I18
I15
tp71
I2
s(I13
I26
tp72
I2
s(I9
I32
tp73
I2
s(I15
I14
tp74
I2
s(I8
I9
tp75
I2
s(I4
I12
tp76
I2
s(I8
I28
tp77
I2
s(I4
I31
tp78
I2
s(I9
I25
tp79
I6
s(I16
I7
tp80
I2
s(I6
I14
tp81
I2
s(I18
I7
tp82
I2
s(I10
I30
tp83
I2
s(I7
I15
tp84
I2
s(I6
I29
tp85
I2
s(I8
I32
tp86
I2
s(I16
I29
tp87
I2
s(I6
I32
tp88
I2
s(I13
I16
tp89
I2
s(I12
I24
tp90
I2
s(I18
I16
tp91
I2
s(I16
I32
tp92
I2
s(I5
I8
tp93
I3
s(I18
I31
tp94
I2
s(I10
I9
tp95
I2
s(I9
I7
tp96
I2
s(I14
I28
tp97
I2
s(I9
I22
tp98
I2
s(I4
I28
tp99
I2
s(I9
I20
tp100
I2
s(I14
I19
tp101
I2
s(I12
I7
tp102
I2
s(I11
I9
tp103
I2
s(I7
I18
tp104
I2
s(I6
I30
tp105
I2
s(I12
I18
tp106
I2
s(I11
I26
tp107
I2
s(I16
I26
tp108
I2
s(I13
I19
tp109
I2
s(I12
I29
tp110
I2
s(I10
I32
tp111
I2
s(I18
I21
tp112
I2
s(I18
I32
tp113
I2
s(I8
I22
tp114
I2
s(I14
I25
tp115
I2
s(I5
I7
tp116
I2
s(I4
I17
tp117
I2
s(I15
I28
tp118
I2
s(I14
I12
tp119
I2
s(I11
I20
tp120
I2
s(I16
I20
tp121
I2
s(I13
I9
tp122
I2
s(I11
I25
tp123
I2
s(I18
I11
tp124
I2
s(I15
I7
tp125
I2
s(I13
I22
tp126
I2
s(I18
I22
tp127
I2
s(I12
I32
tp128
I2
s(I15
I32
tp129
I2
s(I4
I27
tp130
I2
s(I9
I29
tp131
I2
s(I8
I19
tp132
I2
s(I14
I26
tp133
I2
s(I5
I26
tp134
I2
s(I4
I22
tp135
I2
s(I11
I14
tp136
I2
s(I10
I26
tp137
I2
s(I9
I18
tp138
I2
s(I15
I19
tp139
I2
s(I14
I9
tp140
I2
s(I12
I9
tp141
I2
s(I11
I19
tp142
I2
s(I7
I17
tp143
I2
s(I16
I17
tp144
I2
s(I13
I12
tp145
I2
s(I12
I20
tp146
I2
s(I18
I12
tp147
I2
s(I15
I17
tp148
I2
s(I7
I19
tp149
I2
s(I13
I25
tp150
I2
s(I18
I27
tp151
I2
s(I15
I12
tp152
I2
s(I4
I13
tp153
I2
s(I8
I29
tp154
I2
s(I4
I24
tp155
I2
s(I9
I24
tp156
I2
s(I16
I12
tp157
I2
s(I6
I15
tp158
I2
s(I16
I10
tp159
I2
s(I16
I11
tp160
I2
s(I6
I18
tp161
I2
s(I12
I14
tp162
I2
s(I11
I30
tp163
I2
s(I16
I30
tp164
I2
s(I13
I15
tp165
I2
s(I12
I25
tp166
I2
s(I18
I17
tp167
I2
s(I7
I7
tp168
I2
s(I16
I25
tp169
I2
s(I13
I28
tp170
I2
s(I7
I24
tp171
I2
s(I18
I28
tp172
I2
s(I8
I7
tp173
I2
s(I18
I26
tp174
I2
s(I8
I26
tp175
I2
s(I14
I29
tp176
I2
s(I4
I29
tp177
I2
s(I11
I7
tp178
I2
s(I8
I16
tp179
I2
s(I14
I16
tp180
I2
s(I15
I21
tp181
I2
s(I14
I7
tp182
I2
s(I12
I19
tp183
I2
s(I11
I29
tp184
I2
s(I16
I14
tp185
I2
s(I7
I30
tp186
I2
s(I13
I18
tp187
I2
s(I12
I30
tp188
I2
s(I7
I14
tp189
I2
s(I18
I18
tp190
I2
s(I16
I21
tp191
I2
s(I16
I27
tp192
I2
s(I9
I12
tp193
I2
s(I7
I20
tp194
I2
s(I5
I9
tp195
I2
s(I4
I7
tp196
I2
s(I15
I20
tp197
I2
s(I14
I30
tp198
I2
s(I16
I18
tp199
I2
s(I4
I18
tp200
I2
s(I16
I23
tp201
I2
s(I15
I22
tp202
I2
s(I6
I21
tp203
I2
s(I7
I16
tp204
I2
s(I6
I24
tp205
I2
s(I5
I32
tp206
I2
s(I12
I16
tp207
I2
s(I11
I24
tp208
I2
s(I18
I8
tp209
I2
s(I16
I24
tp210
I2
s(I13
I21
tp211
I2
s(I18
I23
tp212
I2
s(I8
I14
tp213
I2
s(I7
I29
tp214
I2
s(I4
I9
tp215
I2
s(I9
I15
tp216
I2
s(I16
I16
tp217
I2
s(I5
I12
tp218
I2
s(I6
I20
tp219
I2
s(I10
I12
tp220
I2
s(I9
I28
tp221
I2
s(I8
I20
tp222
I2
s(I4
I23
tp223
I2
s(I9
I17
tp224
I2
s(I16
I15
tp225
I2
s(I14
I14
tp226
I2
s(I11
I18
tp227
I2
s(I14
I22
tp228
I2
s(I15
I15
tp229
I2
s(I12
I21
tp230
I2
s(I18
I13
tp231
I2
s(I7
I32
tp232
I2
s(I13
I24
tp233
I2
s(I18
I24
tp234
I2
s(I17
I32
tp235
I2
s(I15
I9
tp236
I2
s(I4
I14
tp237
I2
s(I8
I30
tp238
I2
s(I4
I25
tp239
I2
s(I7
I12
tp240
I2
s(I8
I17
tp241
I2
s(I6
I12
tp242
I2
s(I4
I20
tp243
I2
s(I11
I12
tp244
I2
s(I10
I28
tp245
I2
s(I7
I9
tp246
I2
s(I6
I19
tp247
I2
s(I12
I15
tp248
I2
s(I11
I17
tp249
I2
s(I7
I26
tp250
I2
s(I13
I14
tp251
I2
s(I12
I26
tp252
I2
s(I18
I14
tp253
I2
s(I11
I32
tp254
I2
s(I18
I29
tp255
I2
s(I14
I32
tp256
I2
s(I14
I15
tp257
I2
s(I4
I30
tp258
I2
sa(I5
I8
tp259
a.