(lp1
(dp2
(I16
I9
tp3
I2
s(I6
I28
tp4
I2
s(I18
I19
tp5
I2
s(I13
I32
tp6
I2
s(I10
I7
tp7
I2
s(I15
I30
tp8
I2
s(I11
I22
tp9
I2
s(I12
I17
tp10
I2
s(I13
I20
tp11
I2
s(I6
I23
tp12
I2
s(I7
I22
tp13
I2
s(I18
I10
tp14
I2
s(I8
I12
tp15
I2
s(I9
I9
tp16
I2
s(I8
I18
tp17
I2
s(I11
I15
tp18
I2
s(I9
I19
tp19
I2
s(I4
I12
tp20
I2
s(I16
I7
tp21
I2
s(I6
I14
tp22
I2
s(I7
I15
tp23
I2
s(I16
I29
tp24
I2
s(I6
I32
tp25
I2
s(I18
I31
tp26
I2
s(I10
I9
tp27
I2
s(I9
I20
tp28
I2
s(I14
I19
tp29
I2
s(I12
I7
tp30
I2
s(I11
I26
tp31
I2
s(I12
I29
tp32
I2
s(I4
I17
tp33
I2
s(I16
I20
tp34
I2
s(I18
I22
tp35
I2
s(I12
I32
tp36
I2
s(I9
I29
tp37
I2
s(I14
I26
tp38
I2
s(I10
I26
tp39
I2
s(I15
I19
tp40
I2
s(I11
I19
tp41
I2
s(I12
I20
tp42
I2
s(I13
I25
tp43
I2
s(I4
I24
tp44
I2
s(I16
I11
tp45
I2
s(I6
I18
tp46
I2
s(I18
I32
tp47
I2
s(I18
I17
tp48
I2
s(I8
I7
tp49
I2
s(I14
I29
tp50
I2
s(I14
I7
tp51
I2
s(I12
I19
tp52
I2
s(I13
I18
tp53
I2
s(I4
I7
tp54
I2
s(I6
I21
tp55
I2
s(I7
I16
tp56
I2
s(I5
I32
tp57
I2
s(I18
I8
tp58
I2
s(I16
I24
tp59
I2
s(I8
I14
tp60
I2
s(I9
I15
tp61
I2
s(I10
I12
tp62
I2
s(I8
I20
tp63
I2
s(I9
I17
tp64
I2
s(I14
I14
tp65
I2
s(I10
I22
tp66
I2
s(I15
I15
tp67
I2
s(I4
I14
tp68
I2
s(I6
I12
tp69
I2
s(I4
I20
tp70
I2
s(I7
I9
tp71
I2
s(I11
I32
tp72
I2
s(I18
I29
tp73
I2
s(I9
I26
tp74
I2
s(I14
I17
tp75
I2
s(I15
I20
tp76
I2
s(I11
I28
tp77
I2
s(I13
I30
tp78
I2
s(I5
I8
tp79
I3
s(I6
I7
tp80
I2
s(I4
I19
tp81
I2
s(I16
I22
tp82
I2
s(I7
I28
tp83
I2
s(I18
I20
tp84
I2
s(I14
I24
tp85
I2
s(I10
I24
tp86
I2
s(I15
I29
tp87
I2
s(I11
I21
tp88
I2
s(I12
I22
tp89
I2
s(I4
I26
tp90
I2
s(I6
I16
tp91
I2
s(I4
I32
tp92
I2
s(I7
I21
tp93
I2
s(I8
I9
tp94
I2
s(I13
I16
tp95
I2
s(I7
I18
tp96
I2
s(I16
I26
tp97
I2
s(I10
I32
tp98
I2
s(I18
I12
tp99
I2
s(I8
I22
tp100
I2
s(I9
I23
tp101
I2
s(I14
I12
tp102
I2
s(I15
I9
tp103
I2
s(I13
I9
tp104
I2
s(I4
I8
tp105
I2
s(I4
I22
tp106
I2
s(I16
I17
tp107
I2
s(I18
I27
tp108
I2
s(I8
I29
tp109
I2
s(I9
I24
tp110
I2
s(I15
I22
tp111
I2
s(I11
I30
tp112
I2
s(I12
I25
tp113
I2
s(I13
I28
tp114
I2
s(I4
I29
tp115
I2
s(I7
I30
tp116
I2
s(I18
I18
tp117
I2
s(I18
I14
tp118
I2
s(I14
I30
tp119
I2
s(I11
I23
tp120
I6
s(I12
I16
tp121
I2
s(I13
I21
tp122
I2
s(I16
I15
tp123
I2
s(I6
I22
tp124
I2
s(I7
I23
tp125
I2
s(I18
I13
tp126
I2
s(I17
I32
tp127
I2
s(I8
I17
tp128
I2
s(I11
I12
tp129
I2
s(I12
I15
tp130
I2
s(I13
I14
tp131
I2
s(I6
I9
tp132
I2
s(I17
I7
tp133
I2
s(I7
I12
tp134
I2
s(I16
I28
tp135
I2
s(I18
I30
tp136
I2
s(I8
I24
tp137
I2
s(I9
I21
tp138
I2
s(I14
I18
tp139
I2
s(I13
I7
tp140
I2
s(I12
I28
tp141
I2
s(I4
I16
tp142
I2
s(I16
I19
tp143
I2
s(I6
I26
tp144
I2
s(I18
I25
tp145
I2
s(I9
I30
tp146
I2
s(I14
I21
tp147
I2
s(I10
I29
tp148
I2
s(I15
I16
tp149
I2
s(I11
I16
tp150
I2
s(I13
I26
tp151
I2
s(I4
I31
tp152
I2
s(I16
I10
tp153
I2
s(I6
I29
tp154
I2
s(I8
I32
tp155
I2
s(I7
I24
tp156
I2
s(I18
I16
tp157
I2
s(I16
I32
tp158
I2
s(I9
I7
tp159
I2
s(I14
I28
tp160
I2
s(I11
I9
tp161
I2
s(I12
I18
tp162
I2
s(I15
I7
tp163
I2
s(I13
I19
tp164
I2
s(I5
I7
tp165
I2
s(I6
I20
tp166
I2
s(I7
I17
tp167
I2
s(I18
I11
tp168
I2
s(I8
I19
tp169
I2
s(I11
I14
tp170
I2
s(I9
I18
tp171
I2
s(I14
I9
tp172
I2
s(I12
I9
tp173
I2
s(I15
I12
tp174
I2
s(I13
I12
tp175
I2
s(I4
I13
tp176
I2
s(I6
I15
tp177
I2
s(I7
I14
tp178
I2
s(I18
I9
tp179
I2
s(I16
I30
tp180
I2
s(I18
I28
tp181
I2
s(I8
I26
tp182
I2
s(I11
I7
tp183
I2
s(I14
I16
tp184
I2
s(I15
I21
tp185
I2
s(I11
I29
tp186
I2
s(I12
I30
tp187
I2
s(I5
I9
tp188
I2
s(I4
I18
tp189
I2
s(I7
I7
tp190
I2
s(I16
I21
tp191
I2
s(I6
I24
tp192
I2
s(I7
I29
tp193
I2
s(I18
I23
tp194
I2
s(I9
I28
tp195
I2
s(I15
I18
tp196
I2
s(I11
I18
tp197
I2
s(I12
I21
tp198
I2
s(I13
I24
tp199
I2
s(I4
I25
tp200
I2
s(I16
I12
tp201
I2
s(I6
I19
tp202
I2
s(I7
I26
tp203
I2
s(I12
I12
tp204
I2
s(I13
I17
tp205
I2
s(I7
I19
tp206
I2
s(I16
I25
tp207
I2
s(I9
I14
tp208
I2
s(I8
I21
tp209
I2
s(I9
I16
tp210
I2
s(I14
I15
tp211
I2
s(I10
I23
tp212
I2
s(I15
I14
tp213
I2
s(I4
I15
tp214
I2
s(I4
I21
tp215
I2
s(I16
I16
tp216
I2
s(I9
I32
tp217
I2
s(I18
I26
tp218
I2
s(I8
I28
tp219
I2
s(I14
I22
tp220
I2
s(I10
I30
tp221
I2
s(I12
I24
tp222
I2
s(I13
I29
tp223
I2
s(I4
I28
tp224
I2
s(I16
I23
tp225
I2
s(I6
I30
tp226
I2
s(I18
I21
tp227
I2
s(I14
I25
tp228
I2
s(I15
I28
tp229
I2
s(I11
I20
tp230
I2
s(I13
I22
tp231
I2
s(I15
I32
tp232
I2
s(I4
I27
tp233
I2
s(I5
I26
tp234
I2
s(I16
I14
tp235
I2
s(I6
I17
tp236
I2
s(I7
I20
tp237
I2
s(I18
I15
tp238
I2
s(I8
I16
tp239
I2
s(I12
I14
tp240
I2
s(I13
I15
tp241
I2
s(I18
I7
tp242
I2
s(I16
I27
tp243
I2
s(I9
I12
tp244
I2
s(I8
I23
tp245
I2
s(I9
I22
tp246
I2
s(I11
I24
tp247
I2
s(I4
I9
tp248
I2
s(I5
I12
tp249
I2
s(I4
I23
tp250
I2
s(I16
I18
tp251
I2
s(I7
I32
tp252
I2
s(I18
I24
tp253
I2
s(I8
I30
tp254
I2
s(I14
I20
tp255
I2
s(I10
I28
tp256
I2
s(I15
I17
tp257
I2
s(I11
I17
tp258
I2
s(I12
I26
tp259
I2
s(I14
I32
tp260
I2
s(I8
I15
tp261
I2
s(I4
I30
tp262
I2
sa(I5
I8
tp263
a.