(lp1
(dp2
(I16
I9
tp3
I2
s(I6
I28
tp4
I2
s(I18
I19
tp5
I2
s(I13
I32
tp6
I2
s(I10
I7
tp7
I2
s(I15
I30
tp8
I2
s(I11
I22
tp9
I2
s(I12
I17
tp10
I2
s(I13
I20
tp11
I2
s(I6
I23
tp12
I2
s(I7
I22
tp13
I2
s(I18
I10
tp14
I2
s(I8
I12
tp15
I2
s(I9
I9
tp16
I2
s(I8
I18
tp17
I2
s(I11
I15
tp18
I2
s(I9
I19
tp19
I2
s(I4
I12
tp20
I2
s(I16
I7
tp21
I2
s(I6
I14
tp22
I2
s(I7
I15
tp23
I2
s(I16
I29
tp24
I2
s(I6
I32
tp25
I2
s(I18
I31
tp26
I2
s(I10
I9
tp27
I2
s(I9
I20
tp28
I2
s(I14
I19
tp29
I2
s(I12
I7
tp30
I2
s(I11
I26
tp31
I2
s(I12
I29
tp32
I2
s(I4
I17
tp33
I2
s(I16
I20
tp34
I2
s(I18
I22
tp35
I2
s(I12
I32
tp36
I2
s(I9
I29
tp37
I2
s(I14
I26
tp38
I2
s(I10
I26
tp39
I2
s(I15
I19
tp40
I2
s(I11
I19
tp41
I2
s(I12
I20
tp42
I2
s(I13
I25
tp43
I2
s(I4
I24
tp44
I2
s(I16
I11
tp45
I2
s(I6
I18
tp46
I2
s(I18
I17
tp47
I2
s(I8
I7
tp48
I2
s(I14
I29
tp49
I2
s(I14
I7
tp50
I2
s(I12
I19
tp51
I2
s(I13
I18
tp52
I2
s(I4
I7
tp53
I2
s(I6
I21
tp54
I2
s(I7
I16
tp55
I2
s(I5
I32
tp56
I2
s(I18
I8
tp57
I2
s(I16
I24
tp58
I2
s(I8
I14
tp59
I2
s(I9
I15
tp60
I2
s(I10
I12
tp61
I2
s(I8
I20
tp62
I2
s(I9
I17
tp63
I2
s(I14
I14
tp64
I2
s(I15
I15
tp65
I2
s(I4
I14
tp66
I2
s(I6
I12
tp67
I2
s(I4
I20
tp68
I2
s(I7
I9
tp69
I2
s(I11
I32
tp70
I2
s(I18
I29
tp71
I2
s(I9
I26
tp72
I2
s(I14
I17
tp73
I2
s(I15
I20
tp74
I2
s(I11
I28
tp75
I2
s(I13
I30
tp76
I2
s(I5
I8
tp77
I3
s(I6
I7
tp78
I2
s(I4
I19
tp79
I2
s(I16
I22
tp80
I2
s(I7
I28
tp81
I2
s(I18
I20
tp82
I2
s(I14
I24
tp83
I2
s(I15
I29
tp84
I2
s(I11
I21
tp85
I2
s(I12
I22
tp86
I2
s(I4
I26
tp87
I2
s(I6
I16
tp88
I2
s(I4
I32
tp89
I2
s(I7
I21
tp90
I2
s(I18
I15
tp91
I2
s(I8
I9
tp92
I2
s(I13
I16
tp93
I2
s(I7
I18
tp94
I2
s(I16
I26
tp95
I2
s(I10
I32
tp96
I2
s(I18
I32
tp97
I2
s(I8
I22
tp98
I2
s(I9
I23
tp99
I2
s(I14
I12
tp100
I2
s(I15
I9
tp101
I2
s(I13
I9
tp102
I2
s(I11
I25
tp103
I2
s(I4
I8
tp104
I2
s(I4
I22
tp105
I2
s(I16
I17
tp106
I2
s(I18
I27
tp107
I2
s(I8
I29
tp108
I2
s(I9
I24
tp109
I2
s(I15
I22
tp110
I2
s(I11
I30
tp111
I2
s(I12
I25
tp112
I2
s(I13
I28
tp113
I2
s(I4
I29
tp114
I2
s(I7
I30
tp115
I2
s(I18
I18
tp116
I2
s(I14
I30
tp117
I2
s(I12
I16
tp118
I2
s(I13
I21
tp119
I2
s(I16
I15
tp120
I2
s(I6
I22
tp121
I2
s(I7
I23
tp122
I2
s(I9
I32
tp123
I2
s(I17
I32
tp124
I2
s(I8
I17
tp125
I2
s(I11
I12
tp126
I2
s(I12
I15
tp127
I2
s(I13
I14
tp128
I2
s(I6
I9
tp129
I2
s(I17
I7
tp130
I2
s(I7
I12
tp131
I2
s(I16
I28
tp132
I2
s(I18
I30
tp133
I2
s(I8
I24
tp134
I2
s(I9
I21
tp135
I2
s(I14
I18
tp136
I2
s(I13
I7
tp137
I2
s(I12
I28
tp138
I2
s(I4
I16
tp139
I2
s(I16
I19
tp140
I2
s(I6
I26
tp141
I2
s(I18
I25
tp142
I2
s(I9
I30
tp143
I2
s(I14
I21
tp144
I2
s(I10
I29
tp145
I2
s(I15
I16
tp146
I2
s(I11
I16
tp147
I2
s(I13
I26
tp148
I2
s(I4
I31
tp149
I2
s(I16
I10
tp150
I2
s(I6
I29
tp151
I2
s(I8
I32
tp152
I2
s(I7
I24
tp153
I2
s(I18
I16
tp154
I2
s(I16
I32
tp155
I2
s(I9
I7
tp156
I2
s(I14
I28
tp157
I2
s(I11
I9
tp158
I2
s(I12
I18
tp159
I2
s(I15
I7
tp160
I2
s(I13
I19
tp161
I2
s(I5
I7
tp162
I2
s(I6
I20
tp163
I2
s(I7
I17
tp164
I2
s(I18
I11
tp165
I2
s(I8
I19
tp166
I2
s(I11
I14
tp167
I2
s(I9
I18
tp168
I2
s(I14
I9
tp169
I2
s(I12
I9
tp170
I2
s(I15
I12
tp171
I2
s(I13
I12
tp172
I2
s(I4
I13
tp173
I2
s(I6
I15
tp174
I2
s(I7
I14
tp175
I2
s(I16
I30
tp176
I2
s(I18
I28
tp177
I2
s(I8
I26
tp178
I2
s(I11
I7
tp179
I2
s(I14
I16
tp180
I2
s(I15
I21
tp181
I2
s(I11
I29
tp182
I2
s(I12
I30
tp183
I2
s(I5
I9
tp184
I2
s(I4
I18
tp185
I2
s(I7
I7
tp186
I2
s(I16
I21
tp187
I2
s(I6
I24
tp188
I2
s(I7
I29
tp189
I2
s(I18
I23
tp190
I2
s(I9
I28
tp191
I2
s(I15
I18
tp192
I2
s(I11
I18
tp193
I2
s(I12
I21
tp194
I2
s(I13
I24
tp195
I2
s(I4
I25
tp196
I2
s(I16
I12
tp197
I2
s(I6
I19
tp198
I2
s(I7
I26
tp199
I2
s(I18
I14
tp200
I2
s(I12
I12
tp201
I2
s(I13
I17
tp202
I2
s(I7
I19
tp203
I2
s(I18
I9
tp204
I2
s(I16
I25
tp205
I2
s(I8
I15
tp206
I2
s(I9
I14
tp207
I2
s(I8
I21
tp208
I2
s(I9
I16
tp209
I2
s(I14
I15
tp210
I2
s(I10
I23
tp211
I6
s(I15
I14
tp212
I2
s(I4
I15
tp213
I2
s(I4
I21
tp214
I2
s(I16
I16
tp215
I2
s(I18
I13
tp216
I2
s(I18
I26
tp217
I2
s(I8
I28
tp218
I2
s(I14
I22
tp219
I2
s(I10
I30
tp220
I2
s(I12
I24
tp221
I2
s(I13
I29
tp222
I2
s(I4
I28
tp223
I2
s(I16
I23
tp224
I2
s(I6
I30
tp225
I2
s(I18
I21
tp226
I2
s(I14
I25
tp227
I2
s(I15
I28
tp228
I2
s(I11
I20
tp229
I2
s(I13
I22
tp230
I2
s(I15
I32
tp231
I2
s(I4
I27
tp232
I2
s(I5
I26
tp233
I2
s(I16
I14
tp234
I2
s(I6
I17
tp235
I2
s(I7
I20
tp236
I2
s(I18
I12
tp237
I2
s(I8
I16
tp238
I2
s(I12
I14
tp239
I2
s(I13
I15
tp240
I2
s(I18
I7
tp241
I2
s(I16
I27
tp242
I2
s(I9
I12
tp243
I2
s(I8
I23
tp244
I2
s(I9
I22
tp245
I2
s(I11
I24
tp246
I2
s(I4
I9
tp247
I2
s(I5
I12
tp248
I2
s(I4
I23
tp249
I2
s(I16
I18
tp250
I2
s(I7
I32
tp251
I2
s(I18
I24
tp252
I2
s(I8
I30
tp253
I2
s(I14
I20
tp254
I2
s(I10
I28
tp255
I2
s(I15
I17
tp256
I2
s(I11
I17
tp257
I2
s(I12
I26
tp258
I2
s(I14
I32
tp259
I2
s(I4
I30
tp260
I2
sa(I5
I8
tp261
a.