(lp1
(dp2
(I5
I9
tp3
I2
s(I6
I8
tp4
I2
s(I6
I7
tp5
I2
s(I8
I10
tp6
I2
s(I6
I11
tp7
I2
s(I8
I11
tp8
I2
s(I6
I10
tp9
I2
s(I9
I9
tp10
I2
s(I7
I7
tp11
I2
s(I9
I10
tp12
I2
s(I8
I8
tp13
I2
s(I8
I7
tp14
I2
s(I7
I11
tp15
I2
s(I5
I10
tp16
I2
s(I9
I8
tp17
I2
s(I5
I8
tp18
I2
s(I7
I9
tp19
I3
sa(I7
I9
tp20
a.