(lp1
(dp2
(I2
I7
tp3
I2
s(I0
I0
tp4
I3
s(I2
I2
tp5
I2
s(I0
I7
tp6
I2
s(I2
I4
tp7
I2
s(I2
I0
tp8
I2
s(I2
I6
tp9
I2
s(I1
I6
tp10
I6
s(I2
I1
tp11
I2
s(I1
I7
tp12
I2
s(I2
I3
tp13
I2
s(I2
I5
tp14
I2
s(I0
I2
tp15
I3
sa(I0
I2
tp16
a.