(lp1
(dp2
(I9
I13
tp3
I2
s(I11
I10
tp4
I2
s(I9
I14
tp5
I2
s(I11
I11
tp6
I2
s(I10
I8
tp7
I2
s(I11
I8
tp8
I2
s(I9
I8
tp9
I2
s(I11
I9
tp10
I2
s(I9
I9
tp11
I2
s(I9
I10
tp12
I2
s(I10
I14
tp13
I2
s(I11
I14
tp14
I2
s(I9
I11
tp15
I2
s(I10
I11
tp16
I3
s(I11
I12
tp17
I2
s(I9
I12
tp18
I2
s(I11
I13
tp19
I2
sa(I10
I11
tp20
a.