(lp1
(dp2
(I2
I7
tp3
I2
s(I0
I1
tp4
I3
s(I2
I4
tp5
I2
s(I0
I0
tp6
I3
s(I2
I2
tp7
I2
s(I0
I7
tp8
I2
s(I1
I1
tp9
I2
s(I2
I0
tp10
I2
s(I2
I6
tp11
I2
s(I1
I6
tp12
I6
s(I2
I1
tp13
I2
s(I1
I7
tp14
I2
s(I2
I3
tp15
I2
s(I1
I0
tp16
I3
s(I2
I5
tp17
I2
sa(I0
I1
tp18
a.