(lp1
(dp2
(I9
I13
tp3
I2
s(I6
I9
tp4
I2
s(I7
I13
tp5
I2
s(I8
I13
tp6
I2
s(I7
I10
tp7
I6
s(I10
I10
tp8
I2
s(I6
I11
tp9
I2
s(I10
I13
tp10
I2
s(I6
I10
tp11
I2
s(I9
I9
tp12
I2
s(I10
I12
tp13
I2
s(I8
I9
tp14
I2
s(I9
I12
tp15
I3
s(I6
I13
tp16
I2
s(I6
I12
tp17
I2
s(I10
I11
tp18
I2
s(I10
I9
tp19
I2
s(I7
I9
tp20
I2
sa(I9
I12
tp21
a.