(lp1
(dp2
(I11
I16
tp3
I2
s(I13
I22
tp4
I2
s(I7
I21
tp5
I2
s(I10
I17
tp6
I3
s(I13
I19
tp7
I2
s(I10
I15
tp8
I1
s(I11
I23
tp9
I2
s(I8
I19
tp10
I1
s(I11
I14
tp11
I2
s(I13
I21
tp12
I2
s(I7
I20
tp13
I2
s(I8
I23
tp14
I2
s(I9
I15
tp15
I2
s(I9
I21
tp16
I2
s(I11
I19
tp17
I2
s(I7
I19
tp18
I2
s(I12
I17
tp19
I2
s(I9
I17
tp20
I2
s(I11
I20
tp21
I2
s(I13
I20
tp22
I2
s(I7
I23
tp23
I2
s(I12
I21
tp24
I1
s(I9
I14
tp25
I2
s(I9
I20
tp26
I2
s(I10
I23
tp27
I2
s(I7
I18
tp28
I2
s(I9
I16
tp29
I2
s(I11
I17
tp30
I2
s(I11
I21
tp31
I2
s(I8
I17
tp32
I2
s(I7
I22
tp33
I2
s(I13
I23
tp34
I2
s(I13
I17
tp35
I2
s(I10
I21
tp36
I2
s(I9
I23
tp37
I2
s(I10
I14
tp38
I2
s(I13
I18
tp39
I2
s(I10
I20
tp40
I1
s(I7
I17
tp41
I2
s(I11
I15
tp42
I2
s(I12
I23
tp43
I2
s(I9
I19
tp44
I2
sa(I10
I17
tp45
a.