(lp1
(dp2
(I8
I5
tp3
I1
s(I10
I7
tp4
I1
s(I4
I5
tp5
I1
s(I8
I12
tp6
I1
s(I9
I9
tp7
I1
s(I12
I8
tp8
I1
s(I4
I12
tp9
I1
s(I10
I9
tp10
I1
s(I12
I7
tp11
I1
s(I4
I11
tp12
I1
s(I5
I10
tp13
I1
s(I9
I13
tp14
I1
s(I8
I7
tp15
I1
s(I9
I6
tp16
I1
s(I10
I5
tp17
I1
s(I11
I8
tp18
I1
s(I4
I7
tp19
I1
s(I5
I6
tp20
I1
s(I10
I12
tp21
I1
s(I12
I10
tp22
I1
s(I6
I12
tp23
I1
s(I7
I9
tp24
I1
s(I11
I6
tp25
I1
s(I5
I8
tp26
I1
s(I6
I7
tp27
I1
s(I7
I6
tp28
I1
s(I8
I9
tp29
I3
s(I11
I10
tp30
I1
s(I12
I13
tp31
I1
s(I6
I11
tp32
I1
s(I10
I10
tp33
I1
s(I4
I8
tp34
I1
s(I5
I13
tp35
I1
s(I7
I11
tp36
I1
s(I6
I5
tp37
I1
s(I10
I6
tp38
I1
s(I8
I8
tp39
I1
s(I9
I10
tp40
I1
s(I11
I12
tp41
I1
s(I6
I9
tp42
I1
s(I7
I12
tp43
I1
s(I10
I8
tp44
I1
s(I11
I5
tp45
I1
s(I12
I6
tp46
I1
s(I4
I10
tp47
I1
s(I5
I11
tp48
I1
s(I7
I5
tp49
I1
s(I8
I6
tp50
I1
s(I9
I7
tp51
I1
s(I11
I9
tp52
I1
s(I4
I6
tp53
I1
s(I5
I7
tp54
I1
s(I9
I12
tp55
I1
s(I8
I13
tp56
I1
s(I9
I8
tp57
I1
s(I12
I9
tp58
I1
s(I4
I13
tp59
I1
s(I11
I7
tp60
I1
s(I5
I9
tp61
I1
s(I6
I6
tp62
I1
s(I7
I7
tp63
I1
s(I9
I5
tp64
I1
s(I11
I11
tp65
I1
s(I12
I12
tp66
I1
s(I5
I5
tp67
I1
s(I6
I10
tp68
I1
s(I10
I13
tp69
I1
s(I12
I11
tp70
I1
s(I6
I13
tp71
I1
s(I7
I8
tp72
I1
s(I8
I11
tp73
I1
s(I9
I11
tp74
I1
s(I11
I13
tp75
I1
s(I8
I10
tp76
I1
s(I6
I8
tp77
I1
s(I7
I13
tp78
I1
s(I10
I11
tp79
I1
s(I12
I5
tp80
I1
s(I4
I9
tp81
I1
s(I5
I12
tp82
I1
s(I7
I10
tp83
I1
sa(I8
I9
tp84
a.