(lp1
(dp2
(I7
I3
tp3
I2
s(I17
I20
tp4
I2
s(I4
I5
tp5
I2
s(I17
I13
tp6
I2
s(I8
I12
tp7
I2
s(I4
I12
tp8
I2
s(I3
I17
tp9
I2
s(I17
I24
tp10
I2
s(I9
I20
tp11
I1
s(I11
I26
tp12
I2
s(I4
I11
tp13
I2
s(I3
I22
tp14
I2
s(I7
I4
tp15
I2
s(I17
I17
tp16
I2
s(I14
I26
tp17
I2
s(I10
I26
tp18
I2
s(I4
I7
tp19
I2
s(I10
I12
tp20
I2
s(I3
I13
tp21
I2
s(I3
I19
tp22
I2
s(I6
I12
tp23
I2
s(I9
I26
tp24
I2
s(I3
I24
tp25
I2
s(I6
I7
tp26
I2
s(I17
I23
tp27
I2
s(I4
I26
tp28
I2
s(I15
I26
tp29
I2
s(I17
I15
tp30
I2
s(I6
I11
tp31
I2
s(I16
I26
tp32
I2
s(I14
I12
tp33
I2
s(I3
I15
tp34
I2
s(I4
I8
tp35
I2
s(I3
I21
tp36
I2
s(I6
I2
tp37
I2
s(I3
I26
tp38
I2
s(I6
I5
tp39
I2
s(I17
I21
tp40
I2
s(I4
I4
tp41
I2
s(I17
I14
tp42
I2
s(I11
I12
tp43
I2
s(I4
I3
tp44
I2
s(I5
I2
tp45
I2
s(I6
I9
tp46
I2
s(I7
I12
tp47
I2
s(I17
I25
tp48
I2
s(I4
I10
tp49
I2
s(I5
I11
tp50
I3
s(I3
I23
tp51
I2
s(I7
I5
tp52
I2
s(I6
I26
tp53
I2
s(I17
I18
tp54
I2
s(I13
I26
tp55
I2
s(I7
I2
tp56
I2
s(I4
I6
tp57
I2
s(I17
I12
tp58
I2
s(I15
I12
tp59
I2
s(I13
I12
tp60
I2
s(I3
I16
tp61
I2
s(I8
I26
tp62
I2
s(I3
I25
tp63
I2
s(I6
I6
tp64
I2
s(I17
I16
tp65
I2
s(I16
I12
tp66
I2
s(I7
I26
tp67
I2
s(I12
I12
tp68
I2
s(I6
I10
tp69
I2
s(I3
I12
tp70
I2
s(I5
I14
tp71
I2
s(I3
I18
tp72
I2
s(I17
I22
tp73
I2
s(I5
I26
tp74
I2
s(I4
I2
tp75
I2
s(I6
I8
tp76
I2
s(I17
I26
tp77
I2
s(I9
I12
tp78
I2
s(I3
I14
tp79
I2
s(I4
I9
tp80
I2
s(I5
I12
tp81
I1
s(I3
I20
tp82
I2
s(I6
I3
tp83
I1
s(I17
I19
tp84
I2
s(I12
I26
tp85
I2
sa(I5
I11
tp86
a.