(lp1
(dp2
(I7
I3
tp3
I2
s(I5
I31
tp4
I2
s(I17
I20
tp5
I2
s(I7
I25
tp6
I2
s(I22
I19
tp7
I2
s(I8
I5
tp8
I2
s(I14
I31
tp9
I2
s(I10
I7
tp10
I1
s(I11
I22
tp11
I2
s(I14
I1
tp12
I2
s(I12
I17
tp13
I2
s(I13
I20
tp14
I2
s(I3
I2
tp15
I2
s(I5
I24
tp16
I2
s(I19
I13
tp17
I1
s(I7
I22
tp18
I2
s(I23
I19
tp19
I2
s(I21
I15
tp20
I2
s(I23
I9
tp21
I1
s(I8
I18
tp22
I2
s(I9
I19
tp23
I2
s(I24
I21
tp24
I2
s(I14
I8
tp25
I2
s(I12
I8
tp26
I2
s(I25
I16
tp27
I1
s(I2
I18
tp28
I2
s(I0
I14
tp29
I2
s(I3
I11
tp30
I2
s(I24
I33
tp31
I2
s(I5
I1
tp32
I2
s(I6
I14
tp33
I2
s(I18
I5
tp34
I2
s(I16
I29
tp35
I2
s(I21
I8
tp36
I2
s(I17
I24
tp37
I2
s(I18
I31
tp38
I2
s(I9
I20
tp39
I2
s(I24
I28
tp40
I2
s(I15
I10
tp41
I2
s(I24
I2
tp42
I2
s(I12
I29
tp43
I2
s(I3
I22
tp44
I2
s(I6
I1
tp45
I2
s(I19
I27
tp46
I2
s(I7
I4
tp47
I1
s(I5
I20
tp48
I2
s(I16
I20
tp49
I2
s(I21
I17
tp50
I2
s(I19
I1
tp51
I2
s(I17
I17
tp52
I2
s(I9
I29
tp53
I2
s(I24
I9
tp54
I2
s(I12
I20
tp55
I2
s(I3
I31
tp56
I2
s(I5
I29
tp57
I2
s(I20
I27
tp58
I2
s(I16
I11
tp59
I2
s(I6
I18
tp60
I2
s(I8
I33
tp61
I2
s(I7
I27
tp62
I2
s(I22
I17
tp63
I2
s(I20
I1
tp64
I2
s(I18
I17
tp65
I2
s(I16
I33
tp66
I2
s(I14
I29
tp67
I2
s(I10
I5
tp68
I2
s(I15
I24
tp69
I2
s(I11
I8
tp70
I2
s(I24
I16
tp71
I2
s(I1
I18
tp72
I2
s(I3
I4
tp73
I2
s(I5
I6
tp74
I2
s(I6
I21
tp75
I2
s(I19
I15
tp76
I2
s(I17
I3
tp77
I2
s(I7
I16
tp78
I2
s(I20
I8
tp79
I2
s(I16
I24
tp80
I2
s(I8
I14
tp81
I2
s(I11
I1
tp82
I2
s(I24
I23
tp83
I2
s(I12
I10
tp84
I2
s(I10
I22
tp85
I2
s(I15
I15
tp86
I2
s(I3
I13
tp87
I2
s(I3
I19
tp88
I2
s(I6
I12
tp89
I2
s(I19
I20
tp90
I2
s(I7
I9
tp91
I2
s(I18
I3
tp92
I2
s(I16
I31
tp93
I2
s(I21
I22
tp94
I1
s(I18
I29
tp95
I2
s(I8
I27
tp96
I2
s(I24
I30
tp97
I2
s(I14
I17
tp98
I2
s(I12
I1
tp99
I2
s(I15
I20
tp100
I2
s(I24
I4
tp101
I2
s(I12
I31
tp102
I2
s(I5
I8
tp103
I2
s(I3
I24
tp104
I2
s(I7
I6
tp105
I2
s(I5
I18
tp106
I2
s(I16
I22
tp107
I2
s(I21
I31
tp108
I2
s(I7
I28
tp109
I1
s(I18
I20
tp110
I2
s(I23
I25
tp111
I1
s(I9
I3
tp112
I2
s(I14
I24
tp113
I2
s(I10
I24
tp114
I2
s(I15
I29
tp115
I2
s(I24
I11
tp116
I2
s(I12
I22
tp117
I2
s(I3
I1
tp118
I2
s(I15
I33
tp119
I2
s(I5
I27
tp120
I2
s(I6
I16
tp121
I2
s(I21
I24
tp122
I2
s(I4
I32
tp123
I1
s(I19
I8
tp124
I1
s(I7
I21
tp125
I2
s(I10
I3
tp126
I2
s(I11
I10
tp127
I2
s(I14
I5
tp128
I2
s(I3
I6
tp129
I2
s(I17
I15
tp130
I2
s(I5
I4
tp131
I2
s(I6
I11
tp132
I2
s(I21
I33
tp133
I2
s(I19
I17
tp134
I2
s(I17
I1
tp135
I2
s(I7
I18
tp136
I2
s(I17
I27
tp137
I2
s(I18
I12
tp138
I2
s(I9
I13
tp139
I2
s(I10
I10
tp140
I2
s(I11
I3
tp141
I2
s(I24
I25
tp142
I2
s(I14
I12
tp143
I2
s(I3
I21
tp144
I2
s(I25
I32
tp145
I1
s(I6
I2
tp146
I1
s(I7
I11
tp147
I2
s(I22
I33
tp148
I2
s(I5
I23
tp149
I2
s(I20
I17
tp150
I2
s(I18
I1
tp151
I2
s(I16
I17
tp152
I2
s(I7
I33
tp153
I2
s(I18
I27
tp154
I2
s(I8
I29
tp155
I2
s(I9
I24
tp156
I2
s(I12
I3
tp157
I2
s(I10
I31
tp158
I2
s(I15
I22
tp159
I2
s(I24
I6
tp160
I2
s(I3
I26
tp161
I2
s(I19
I31
tp162
I2
s(I5
I16
tp163
I2
s(I20
I24
tp164
I2
s(I3
I32
tp165
I2
s(I16
I8
tp166
I2
s(I6
I31
tp167
I2
s(I21
I29
tp168
I1
s(I19
I5
tp169
I2
s(I22
I18
tp170
I2
s(I13
I33
tp171
I2
s(I9
I1
tp172
I2
s(I15
I31
tp173
I2
s(I11
I23
tp174
I1
s(I0
I16
tp175
I3
s(I24
I13
tp176
I2
s(I15
I5
tp177
I2
s(I3
I3
tp178
I2
s(I5
I25
tp179
I2
s(I16
I15
tp180
I2
s(I7
I23
tp181
I2
s(I20
I13
tp182
I2
s(I23
I16
tp183
I1
s(I22
I15
tp184
I2
s(I9
I10
tp185
I2
s(I10
I1
tp186
I2
s(I11
I12
tp187
I2
s(I24
I20
tp188
I2
s(I12
I15
tp189
I2
s(I3
I8
tp190
I2
s(I24
I32
tp191
I2
s(I5
I2
tp192
I2
s(I19
I19
tp193
I1
s(I20
I20
tp194
I2
s(I10
I8
tp195
I2
s(I11
I5
tp196
I2
s(I9
I21
tp197
I2
s(I24
I27
tp198
I2
s(I15
I11
tp199
I1
s(I11
I27
tp200
I2
s(I24
I1
tp201
I2
s(I3
I23
tp202
I2
s(I19
I24
tp203
I1
s(I7
I5
tp204
I2
s(I20
I19
tp205
I2
s(I8
I31
tp206
I2
s(I10
I29
tp207
I2
s(I24
I8
tp208
I2
s(I12
I27
tp209
I2
s(I14
I33
tp210
I2
s(I3
I28
tp211
I2
s(I19
I33
tp212
I2
s(I5
I30
tp213
I2
s(I16
I10
tp214
I2
s(I21
I27
tp215
I2
s(I7
I24
tp216
I2
s(I21
I5
tp217
I2
s(I9
I7
tp218
I2
s(I11
I9
tp219
I1
s(I0
I18
tp220
I2
s(I3
I5
tp221
I2
s(I5
I7
tp222
I2
s(I20
I33
tp223
I2
s(I16
I1
tp224
I2
s(I6
I20
tp225
I2
s(I19
I12
tp226
I2
s(I18
I33
tp227
I2
s(I17
I12
tp228
I2
s(I5
I33
tp229
I2
s(I20
I15
tp230
I2
s(I8
I13
tp231
I2
s(I22
I13
tp232
I2
s(I9
I8
tp233
I2
s(I23
I8
tp234
I2
s(I8
I19
tp235
I2
s(I11
I14
tp236
I1
s(I24
I22
tp237
I2
s(I12
I9
tp238
I2
s(I15
I12
tp239
I2
s(I13
I12
tp240
I2
s(I3
I10
tp241
I2
s(I1
I14
tp242
I2
s(I17
I5
tp243
I2
s(I7
I14
tp244
I2
s(I6
I33
tp245
I2
s(I17
I31
tp246
I2
s(I11
I33
tp247
I2
s(I9
I27
tp248
I2
s(I24
I29
tp249
I2
s(I10
I16
tp250
I2
s(I15
I21
tp251
I1
s(I13
I5
tp252
I2
s(I11
I29
tp253
I2
s(I24
I3
tp254
I2
s(I13
I31
tp255
I2
s(I5
I9
tp256
I2
s(I3
I25
tp257
I2
s(I7
I7
tp258
I2
s(I16
I21
tp259
I2
s(I7
I29
tp260
I2
s(I22
I31
tp261
I2
s(I12
I33
tp262
I2
s(I8
I1
tp263
I2
s(I14
I27
tp264
I2
s(I10
I27
tp265
I2
s(I11
I18
tp266
I1
s(I24
I10
tp267
I2
s(I13
I24
tp268
I2
s(I23
I33
tp269
I2
s(I3
I30
tp270
I2
s(I5
I28
tp271
I2
s(I16
I12
tp272
I2
s(I7
I26
tp273
I2
s(I21
I3
tp274
I1
s(I22
I8
tp275
I2
s(I9
I5
tp276
I2
s(I23
I13
tp277
I2
s(I15
I27
tp278
I2
s(I12
I12
tp279
I2
s(I15
I1
tp280
I2
s(I13
I17
tp281
I2
s(I3
I7
tp282
I2
s(I4
I0
tp283
I1
s(I5
I5
tp284
I2
s(I16
I3
tp285
I2
s(I9
I16
tp286
I2
s(I24
I24
tp287
I2
s(I14
I15
tp288
I2
s(I3
I12
tp289
I2
s(I5
I14
tp290
I2
s(I3
I18
tp291
I2
s(I25
I33
tp292
I2
s(I7
I8
tp293
I2
s(I17
I29
tp294
I2
s(I9
I25
tp295
I2
s(I24
I31
tp296
I2
s(I14
I22
tp297
I2
s(I13
I3
tp298
I2
s(I11
I31
tp299
I2
s(I24
I5
tp300
I2
s(I12
I24
tp301
I2
s(I25
I0
tp302
I1
s(I13
I29
tp303
I2
s(I3
I27
tp304
I2
s(I7
I1
tp305
I2
s(I20
I31
tp306
I2
s(I3
I33
tp307
I2
s(I6
I30
tp308
I1
s(I7
I31
tp309
I2
s(I20
I5
tp310
I2
s(I23
I24
tp311
I2
s(I8
I3
tp312
I2
s(I10
I25
tp313
I1
s(I11
I20
tp314
I2
s(I24
I12
tp315
I2
s(I14
I3
tp316
I2
s(I12
I23
tp317
I2
s(I3
I0
tp318
I2
s(I17
I8
tp319
I2
s(I5
I26
tp320
I2
s(I4
I33
tp321
I2
s(I20
I12
tp322
I2
s(I9
I33
tp323
I2
s(I21
I1
tp324
I2
s(I17
I33
tp325
I2
s(I22
I14
tp326
I2
s(I18
I15
tp327
I2
s(I9
I11
tp328
I2
s(I8
I16
tp329
I2
s(I24
I19
tp330
I2
s(I14
I10
tp331
I2
s(I15
I3
tp332
I2
s(I13
I15
tp333
I2
s(I3
I9
tp334
I2
s(I2
I14
tp335
I2
s(I5
I3
tp336
I2
s(I16
I5
tp337
I2
s(I16
I27
tp338
I2
s(I21
I10
tp339
I1
s(I10
I33
tp340
I2
s(I22
I1
tp341
I2
s(I9
I12
tp342
I2
s(I9
I22
tp343
I2
s(I24
I26
tp344
I2
s(I12
I5
tp345
I2
s(I15
I8
tp346
I2
s(I13
I8
tp347
I2
s(I11
I24
tp348
I2
s(I24
I0
tp349
I2
s(I3
I14
tp350
I2
s(I5
I12
tp351
I2
s(I3
I20
tp352
I2
s(I7
I10
tp353
I2
s(I22
I24
tp354
I2
s(I9
I31
tp355
I2
s(I14
I20
tp356
I2
s(I15
I17
tp357
I2
s(I13
I1
tp358
I2
s(I24
I7
tp359
I2
s(I13
I27
tp360
I2
s(I3
I29
tp361
I2
sa(I0
I16
tp362
a.