(lp1
(dp2
(I5
I31
tp3
I2
s(I3
I35
tp4
I2
s(I6
I28
tp5
I2
s(I21
I28
tp6
I2
s(I19
I4
tp7
I2
s(I17
I20
tp8
I2
s(I23
I26
tp9
I2
s(I21
I6
tp10
I2
s(I10
I7
tp11
I2
s(I11
I22
tp12
I2
s(I24
I14
tp13
I2
s(I14
I1
tp14
I2
s(I12
I17
tp15
I2
s(I2
I27
tp16
I2
s(I3
I2
tp17
I2
s(I4
I5
tp18
I2
s(I5
I24
tp19
I2
s(I20
I32
tp20
I2
s(I4
I35
tp21
I2
s(I19
I13
tp22
I2
s(I17
I13
tp23
I2
s(I23
I19
tp24
I2
s(I10
I14
tp25
I2
s(I9
I19
tp26
I2
s(I24
I21
tp27
I2
s(I12
I8
tp28
I1
s(I1
I21
tp29
I2
s(I25
I16
tp30
I1
s(I15
I13
tp31
I1
s(I2
I18
tp32
I1
s(I1
I15
tp33
I2
s(I4
I12
tp34
I2
s(I2
I12
tp35
I2
s(I3
I17
tp36
I2
s(I1
I33
tp37
I2
s(I19
I18
tp38
I2
s(I17
I6
tp39
I2
s(I21
I8
tp40
I2
s(I17
I24
tp41
I2
s(I23
I6
tp42
I2
s(I10
I9
tp43
I2
s(I11
I4
tp44
I1
s(I9
I20
tp45
I2
s(I14
I19
tp46
I2
s(I12
I7
tp47
I2
s(I15
I10
tp48
I2
s(I24
I2
tp49
I2
s(I2
I7
tp50
I2
s(I3
I22
tp51
I2
s(I6
I1
tp52
I2
s(I19
I27
tp53
I2
s(I7
I4
tp54
I2
s(I5
I20
tp55
I1
s(I16
I20
tp56
I2
s(I21
I17
tp57
I2
s(I19
I1
tp58
I2
s(I17
I17
tp59
I2
s(I7
I34
tp60
I1
s(I11
I19
tp61
I2
s(I24
I9
tp62
I2
s(I1
I25
tp63
I2
s(I25
I4
tp64
I2
s(I13
I25
tp65
I2
s(I3
I31
tp66
I2
s(I4
I24
tp67
I2
s(I19
I32
tp68
I2
s(I5
I29
tp69
I2
s(I6
I18
tp70
I1
s(I21
I26
tp71
I2
s(I19
I6
tp72
I1
s(I8
I33
tp73
I2
s(I22
I17
tp74
I2
s(I16
I33
tp75
I2
s(I21
I4
tp76
I2
s(I8
I7
tp77
I2
s(I9
I6
tp78
I2
s(I14
I29
tp79
I1
s(I15
I24
tp80
I1
s(I24
I16
tp81
I2
s(I12
I19
tp82
I2
s(I1
I18
tp83
I2
s(I15
I6
tp84
I2
s(I16
I21
tp85
I1
s(I3
I4
tp86
I2
s(I5
I6
tp87
I2
s(I20
I34
tp88
I1
s(I6
I21
tp89
I2
s(I21
I35
tp90
I2
s(I19
I15
tp91
I2
s(I17
I3
tp92
I2
s(I7
I16
tp93
I2
s(I5
I32
tp94
I2
s(I20
I8
tp95
I2
s(I16
I24
tp96
I2
s(I21
I13
tp97
I2
s(I16
I23
tp98
I1
s(I8
I14
tp99
I2
s(I22
I2
tp100
I1
s(I10
I12
tp101
I2
s(I8
I20
tp102
I1
s(I11
I1
tp103
I2
s(I24
I23
tp104
I2
s(I14
I14
tp105
I2
s(I12
I10
tp106
I2
s(I2
I16
tp107
I2
s(I0
I0
tp108
I1
s(I4
I14
tp109
I2
s(I2
I10
tp110
I2
s(I24
I35
tp111
I2
s(I3
I19
tp112
I2
s(I19
I20
tp113
I2
s(I17
I4
tp114
I2
s(I7
I9
tp115
I2
s(I18
I34
tp116
I2
s(I17
I30
tp117
I2
s(I22
I5
tp118
I1
s(I24
I30
tp119
I2
s(I14
I17
tp120
I2
s(I12
I1
tp121
I2
s(I10
I17
tp122
I1
s(I15
I20
tp123
I1
s(I13
I4
tp124
I1
s(I1
I6
tp125
I2
s(I13
I30
tp126
I1
s(I5
I8
tp127
I2
s(I3
I24
tp128
I2
s(I6
I7
tp129
I1
s(I19
I29
tp130
I2
s(I5
I18
tp131
I2
s(I16
I22
tp132
I2
s(I21
I31
tp133
I2
s(I19
I3
tp134
I2
s(I17
I23
tp135
I2
s(I7
I28
tp136
I2
s(I20
I4
tp137
I2
s(I18
I20
tp138
I1
s(I23
I25
tp139
I2
s(I12
I34
tp140
I2
s(I8
I2
tp141
I2
s(I9
I3
tp142
I1
s(I11
I21
tp143
I2
s(I24
I11
tp144
I1
s(I12
I22
tp145
I1
s(I1
I31
tp146
I2
s(I13
I23
tp147
I2
s(I15
I33
tp148
I2
s(I21
I24
tp149
I2
s(I19
I8
tp150
I2
s(I8
I35
tp151
I2
s(I7
I21
tp152
I2
s(I22
I23
tp153
I2
s(I20
I3
tp154
I1
s(I16
I35
tp155
I2
s(I21
I2
tp156
I2
s(I8
I9
tp157
I1
s(I23
I12
tp158
I2
s(I24
I18
tp159
I2
s(I14
I5
tp160
I2
s(I1
I16
tp161
I2
s(I13
I16
tp162
I1
s(I2
I23
tp163
I1
s(I1
I10
tp164
I2
s(I16
I17
tp165
I1
s(I19
I17
tp166
I2
s(I17
I1
tp167
I2
s(I7
I18
tp168
I2
s(I16
I26
tp169
I2
s(I21
I11
tp170
I2
s(I10
I32
tp171
I2
s(I17
I27
tp172
I2
s(I9
I33
tp173
I2
s(I10
I10
tp174
I2
s(I8
I22
tp175
I2
s(I24
I25
tp176
I1
s(I14
I12
tp177
I2
s(I12
I4
tp178
I2
s(I15
I9
tp179
I2
s(I13
I9
tp180
I2
s(I11
I25
tp181
I2
s(I0
I2
tp182
I2
s(I1
I3
tp183
I2
s(I4
I8
tp184
I2
s(I2
I8
tp185
I2
s(I5
I13
tp186
I2
s(I25
I32
tp187
I2
s(I6
I2
tp188
I2
s(I4
I22
tp189
I2
s(I19
I22
tp190
I2
s(I2
I34
tp191
I1
s(I7
I11
tp192
I2
s(I22
I33
tp193
I1
s(I21
I20
tp194
I2
s(I17
I28
tp195
I2
s(I23
I2
tp196
I2
s(I9
I24
tp197
I2
s(I14
I23
tp198
I2
s(I12
I3
tp199
I2
s(I10
I31
tp200
I2
s(I15
I22
tp201
I1
s(I24
I6
tp202
I2
s(I12
I25
tp203
I2
s(I1
I4
tp204
I1
s(I14
I35
tp205
I2
s(I6
I5
tp206
I2
s(I19
I31
tp207
I2
s(I5
I16
tp208
I2
s(I21
I29
tp209
I2
s(I17
I21
tp210
I2
s(I23
I27
tp211
I2
s(I8
I4
tp212
I2
s(I13
I33
tp213
I2
s(I9
I35
tp214
I2
s(I14
I30
tp215
I1
s(I10
I6
tp216
I2
s(I16
I34
tp217
I2
s(I11
I23
tp218
I2
s(I24
I13
tp219
I2
s(I1
I29
tp220
I2
s(I15
I5
tp221
I2
s(I13
I21
tp222
I2
s(I2
I26
tp223
I1
s(I3
I3
tp224
I1
s(I4
I4
tp225
I2
s(I8
I8
tp226
I2
s(I6
I22
tp227
I2
s(I19
I10
tp228
I2
s(I17
I14
tp229
I2
s(I22
I21
tp230
I2
s(I5
I35
tp231
I2
s(I18
I13
tp232
I1
s(I22
I15
tp233
I1
s(I9
I10
tp234
I2
s(I23
I14
tp235
I2
s(I10
I1
tp236
I2
s(I11
I12
tp237
I2
s(I0
I23
tp238
I2
s(I24
I20
tp239
I2
s(I14
I11
tp240
I1
s(I3
I27
tp241
I2
s(I1
I22
tp242
I2
s(I13
I14
tp243
I2
s(I0
I13
tp244
I1
s(I1
I8
tp245
I1
s(I4
I3
tp246
I2
s(I2
I15
tp247
I1
s(I5
I2
tp248
I2
s(I1
I34
tp249
I2
s(I19
I19
tp250
I2
s(I17
I7
tp251
I2
s(I7
I12
tp252
I2
s(I6
I35
tp253
I2
s(I17
I25
tp254
I2
s(I22
I6
tp255
I2
s(I10
I8
tp256
I2
s(I9
I21
tp257
I2
s(I24
I27
tp258
I1
s(I15
I11
tp259
I2
s(I13
I7
tp260
I2
s(I24
I1
tp261
I1
s(I1
I1
tp262
I2
s(I4
I10
tp263
I2
s(I2
I6
tp264
I2
s(I3
I23
tp265
I1
s(I6
I0
tp266
I1
s(I19
I24
tp267
I2
s(I2
I32
tp268
I1
s(I16
I19
tp269
I1
s(I21
I18
tp270
I2
s(I17
I18
tp271
I2
s(I7
I35
tp272
I2
s(I23
I28
tp273
I2
s(I9
I30
tp274
I1
s(I14
I21
tp275
I2
s(I10
I29
tp276
I2
s(I11
I16
tp277
I2
s(I24
I8
tp278
I2
s(I12
I27
tp279
I1
s(I1
I26
tp280
I2
s(I14
I33
tp281
I2
s(I3
I28
tp282
I2
s(I19
I33
tp283
I2
s(I7
I2
tp284
I2
s(I5
I30
tp285
I2
s(I6
I29
tp286
I1
s(I21
I27
tp287
I2
s(I17
I11
tp288
I2
s(I7
I24
tp289
I2
s(I20
I0
tp290
I1
s(I21
I5
tp291
I2
s(I8
I6
tp292
I2
s(I22
I10
tp293
I2
s(I9
I7
tp294
I1
s(I10
I4
tp295
I2
s(I0
I18
tp296
I1
s(I24
I15
tp297
I2
s(I14
I6
tp298
I1
s(I12
I18
tp299
I1
s(I15
I7
tp300
I2
s(I13
I19
tp301
I2
s(I4
I6
tp302
I2
s(I5
I7
tp303
I2
s(I16
I1
tp304
I2
s(I21
I36
tp305
I1
s(I19
I12
tp306
I2
s(I9
I12
tp307
I2
s(I17
I12
tp308
I2
s(I7
I17
tp309
I2
s(I5
I33
tp310
I2
s(I23
I18
tp311
I1
s(I21
I14
tp312
I1
s(I8
I13
tp313
I1
s(I23
I8
tp314
I1
s(I11
I14
tp315
I2
s(I9
I18
tp316
I2
s(I24
I22
tp317
I2
s(I12
I9
tp318
I2
s(I1
I20
tp319
I2
s(I15
I12
tp320
I2
s(I13
I12
tp321
I2
s(I23
I35
tp322
I2
s(I1
I14
tp323
I2
s(I12
I14
tp324
I2
s(I4
I13
tp325
I1
s(I3
I16
tp326
I2
s(I1
I32
tp327
I2
s(I19
I21
tp328
I2
s(I17
I5
tp329
I2
s(I7
I14
tp330
I2
s(I6
I33
tp331
I2
s(I21
I23
tp332
I2
s(I17
I31
tp333
I2
s(I22
I4
tp334
I2
s(I23
I1
tp335
I2
s(I8
I26
tp336
I1
s(I11
I7
tp337
I2
s(I10
I16
tp338
I2
s(I13
I5
tp339
I2
s(I25
I2
tp340
I1
s(I25
I36
tp341
I1
s(I6
I6
tp342
I2
s(I19
I26
tp343
I2
s(I5
I19
tp344
I2
s(I23
I32
tp345
I2
s(I6
I24
tp346
I2
s(I21
I16
tp347
I2
s(I19
I0
tp348
I2
s(I9
I14
tp349
I2
s(I17
I16
tp350
I2
s(I22
I31
tp351
I1
s(I23
I30
tp352
I2
s(I12
I33
tp353
I2
s(I8
I1
tp354
I1
s(I9
I28
tp355
I2
s(I15
I18
tp356
I1
s(I11
I18
tp357
I2
s(I0
I29
tp358
I1
s(I24
I10
tp359
I2
s(I12
I21
tp360
I2
s(I1
I24
tp361
I2
s(I2
I31
tp362
I2
s(I23
I33
tp363
I2
s(I3
I30
tp364
I2
s(I5
I28
tp365
I2
s(I6
I19
tp366
I2
s(I21
I25
tp367
I2
s(I19
I9
tp368
I2
s(I17
I9
tp369
I2
s(I17
I35
tp370
I2
s(I22
I8
tp371
I2
s(I9
I5
tp372
I1
s(I23
I13
tp373
I1
s(I10
I2
tp374
I2
s(I11
I11
tp375
I1
s(I24
I17
tp376
I2
s(I12
I12
tp377
I2
s(I15
I1
tp378
I2
s(I13
I17
tp379
I2
s(I1
I11
tp380
I2
s(I4
I0
tp381
I2
s(I5
I5
tp382
I1
s(I20
I35
tp383
I2
s(I16
I3
tp384
I2
s(I6
I10
tp385
I2
s(I21
I34
tp386
I2
s(I19
I14
tp387
I2
s(I7
I19
tp388
I2
s(I16
I25
tp389
I1
s(I21
I12
tp390
I2
s(I10
I35
tp391
I2
s(I18
I35
tp392
I2
s(I23
I10
tp393
I2
s(I8
I21
tp394
I2
s(I9
I16
tp395
I2
s(I24
I24
tp396
I2
s(I10
I23
tp397
I1
s(I15
I14
tp398
I2
s(I13
I10
tp399
I1
s(I0
I1
tp400
I1
s(I3
I12
tp401
I2
s(I1
I12
tp402
I2
s(I2
I11
tp403
I3
s(I5
I14
tp404
I2
s(I3
I18
tp405
I2
s(I25
I33
tp406
I2
s(I19
I23
tp407
I2
s(I7
I8
tp408
I2
s(I22
I32
tp409
I2
s(I18
I0
tp410
I1
s(I16
I16
tp411
I2
s(I21
I21
tp412
I2
s(I17
I29
tp413
I2
s(I23
I3
tp414
I2
s(I8
I28
tp415
I2
s(I10
I30
tp416
I2
s(I0
I24
tp417
I1
s(I12
I24
tp418
I1
s(I1
I5
tp419
I2
s(I25
I0
tp420
I2
s(I13
I29
tp421
I1
s(I2
I2
tp422
I2
s(I14
I34
tp423
I1
s(I6
I4
tp424
I2
s(I19
I28
tp425
I2
s(I5
I17
tp426
I2
s(I20
I31
tp427
I1
s(I3
I33
tp428
I1
s(I23
I34
tp429
I2
s(I21
I30
tp430
I2
s(I19
I2
tp431
I2
s(I17
I22
tp432
I2
s(I7
I31
tp433
I1
s(I12
I35
tp434
I2
s(I9
I2
tp435
I2
s(I14
I25
tp436
I2
s(I24
I12
tp437
I2
s(I14
I3
tp438
I2
s(I12
I23
tp439
I2
s(I2
I29
tp440
I1
s(I17
I8
tp441
I2
s(I19
I11
tp442
I2
s(I17
I15
tp443
I2
s(I5
I36
tp444
I1
s(I21
I1
tp445
I2
s(I9
I11
tp446
I2
s(I23
I15
tp447
I2
s(I8
I16
tp448
I2
s(I23
I22
tp449
I1
s(I0
I22
tp450
I1
s(I24
I19
tp451
I2
s(I1
I23
tp452
I2
s(I15
I3
tp453
I2
s(I13
I15
tp454
I1
s(I2
I20
tp455
I2
s(I11
I35
tp456
I2
s(I4
I2
tp457
I2
s(I2
I14
tp458
I2
s(I5
I3
tp459
I1
s(I17
I34
tp460
I1
s(I1
I35
tp461
I2
s(I21
I32
tp462
I2
s(I19
I16
tp463
I2
s(I7
I13
tp464
I2
s(I21
I10
tp465
I2
s(I10
I33
tp466
I2
s(I17
I26
tp467
I2
s(I22
I1
tp468
I2
s(I18
I33
tp469
I2
s(I23
I4
tp470
I2
s(I10
I11
tp471
I1
s(I24
I26
tp472
I2
s(I12
I5
tp473
I2
s(I25
I27
tp474
I1
s(I15
I8
tp475
I2
s(I13
I8
tp476
I2
s(I11
I24
tp477
I2
s(I0
I3
tp478
I1
s(I3
I14
tp479
I2
s(I20
I22
tp480
I1
s(I1
I2
tp481
I2
s(I4
I9
tp482
I2
s(I2
I9
tp483
I2
s(I5
I12
tp484
I2
s(I3
I20
tp485
I2
s(I17
I10
tp486
I2
s(I4
I23
tp487
I2
s(I19
I25
tp488
I2
s(I2
I35
tp489
I2
s(I7
I10
tp490
I2
s(I16
I18
tp491
I2
s(I21
I19
tp492
I2
s(I17
I19
tp493
I2
s(I23
I29
tp494
I2
s(I10
I28
tp495
I2
s(I25
I28
tp496
I2
s(I13
I1
tp497
I2
s(I11
I17
tp498
I2
s(I24
I7
tp499
I2
s(I1
I27
tp500
I2
s(I3
I29
tp501
I2
s(I19
I30
tp502
I2
sa(I2
I11
tp503
a.