(lp1
(dp2
(I7
I3
tp3
I2
s(I1
I3
tp4
I2
s(I3
I8
tp5
I1
s(I2
I18
tp6
I2
s(I5
I6
tp7
I1
s(I1
I14
tp8
I2
s(I3
I11
tp9
I1
s(I1
I15
tp10
I2
s(I6
I2
tp11
I2
s(I7
I16
tp12
I2
s(I3
I7
tp13
I1
s(I7
I11
tp14
I2
s(I3
I17
tp15
I1
s(I5
I8
tp16
I1
s(I1
I2
tp17
I2
s(I1
I18
tp18
I2
s(I1
I11
tp19
I2
s(I7
I15
tp20
I2
s(I5
I14
tp21
I1
s(I1
I5
tp22
I2
s(I7
I6
tp23
I2
s(I5
I11
tp24
I1
s(I5
I18
tp25
I2
s(I3
I18
tp26
I2
s(I5
I12
tp27
I1
s(I7
I12
tp28
I2
s(I7
I2
tp29
I2
s(I3
I6
tp30
I1
s(I4
I18
tp31
I2
s(I1
I10
tp32
I2
s(I1
I17
tp33
I2
s(I7
I13
tp34
I2
s(I3
I5
tp35
I1
s(I3
I15
tp36
I1
s(I3
I2
tp37
I2
s(I6
I18
tp38
I2
s(I7
I10
tp39
I2
s(I3
I14
tp40
I1
s(I3
I13
tp41
I1
s(I3
I10
tp42
I1
s(I1
I13
tp43
I2
s(I5
I17
tp44
I1
s(I1
I7
tp45
I2
s(I5
I5
tp46
I1
s(I7
I18
tp47
I2
s(I5
I13
tp48
I1
s(I5
I9
tp49
I1
s(I3
I16
tp50
I1
s(I5
I15
tp51
I1
s(I1
I4
tp52
I2
s(I5
I4
tp53
I1
s(I3
I12
tp54
I1
s(I7
I7
tp55
I2
s(I7
I8
tp56
I2
s(I7
I9
tp57
I2
s(I5
I10
tp58
I1
s(I1
I12
tp59
I2
s(I5
I16
tp60
I1
s(I5
I2
tp61
I2
s(I5
I7
tp62
I1
s(I7
I14
tp63
I2
s(I2
I2
tp64
I2
s(I4
I2
tp65
I2
s(I7
I4
tp66
I2
s(I1
I8
tp67
I2
s(I7
I5
tp68
I2
s(I4
I3
tp69
I3
s(I7
I17
tp70
I2
s(I1
I6
tp71
I2
s(I3
I9
tp72
I1
s(I3
I4
tp73
I1
s(I1
I16
tp74
I2
s(I1
I9
tp75
I2
sa(I4
I3
tp76
a.