(lp1
(dp2
(I13
I32
tp3
I2
s(I0
I17
tp4
I2
s(I13
I20
tp5
I2
s(I13
I13
tp6
I2
s(I3
I17
tp7
I2
s(I13
I6
tp8
I2
s(I2
I7
tp9
I1
s(I4
I17
tp10
I2
s(I21
I17
tp11
I2
s(I17
I17
tp12
I2
s(I13
I25
tp13
I2
s(I8
I33
tp14
I1
s(I22
I17
tp15
I2
s(I18
I17
tp16
I2
s(I22
I11
tp17
I1
s(I9
I15
tp18
I1
s(I9
I17
tp19
I2
s(I13
I11
tp20
I2
s(I2
I16
tp21
I1
s(I22
I5
tp22
I1
s(I8
I27
tp23
I1
s(I10
I17
tp24
I2
s(I13
I4
tp25
I2
s(I13
I30
tp26
I2
s(I19
I3
tp27
I1
s(I13
I35
tp28
I2
s(I13
I23
tp29
I2
s(I9
I4
tp30
I1
s(I19
I17
tp31
I2
s(I17
I27
tp32
I1
s(I23
I17
tp33
I2
s(I9
I23
tp34
I1
s(I13
I9
tp35
I2
s(I5
I23
tp36
I1
s(I20
I17
tp37
I2
s(I16
I17
tp38
I2
s(I13
I2
tp39
I2
s(I13
I28
tp40
I2
s(I19
I5
tp41
I1
s(I13
I33
tp42
I2
s(I13
I21
tp43
I2
s(I19
I36
tp44
I1
s(I9
I10
tp45
I1
s(I8
I17
tp46
I2
s(I25
I17
tp47
I2
s(I13
I14
tp48
I2
s(I4
I3
tp49
I1
s(I13
I7
tp50
I2
s(I5
I11
tp51
I1
s(I23
I28
tp52
I1
s(I13
I0
tp53
I2
s(I13
I26
tp54
I2
s(I16
I32
tp55
I1
s(I13
I19
tp56
I2
s(I19
I12
tp57
I1
s(I7
I17
tp58
I2
s(I13
I12
tp59
I2
s(I23
I35
tp60
I1
s(I18
I9
tp61
I1
s(I13
I5
tp62
I2
s(I13
I31
tp63
I2
s(I18
I23
tp64
I1
s(I13
I36
tp65
I2
s(I13
I24
tp66
I2
s(I22
I8
tp67
I1
s(I24
I17
tp68
I2
s(I1
I17
tp69
I2
s(I13
I17
tp70
I3
s(I7
I19
tp71
I1
s(I13
I10
tp72
I2
s(I2
I17
tp73
I2
s(I7
I8
tp74
I1
s(I13
I3
tp75
I2
s(I13
I29
tp76
I2
s(I3
I27
tp77
I1
s(I5
I17
tp78
I2
s(I13
I34
tp79
I2
s(I13
I22
tp80
I2
s(I6
I17
tp81
I2
s(I22
I20
tp82
I1
s(I13
I15
tp83
I2
s(I2
I20
tp84
I1
s(I22
I1
tp85
I1
s(I13
I8
tp86
I2
s(I2
I35
tp87
I1
s(I15
I17
tp88
I2
s(I13
I1
tp89
I2
s(I11
I17
tp90
I2
s(I13
I27
tp91
I2
s(I19
I30
tp92
I1
sa(I13
I17
tp93
a.