(lp1
(dp2
(I21
I28
tp3
I2
s(I17
I20
tp4
I2
s(I7
I25
tp5
I1
s(I23
I26
tp6
I2
s(I14
I31
tp7
I2
s(I14
I1
tp8
I1
s(I12
I17
tp9
I2
s(I1
I28
tp10
I2
s(I20
I32
tp11
I2
s(I4
I35
tp12
I1
s(I12
I8
tp13
I2
s(I0
I36
tp14
I1
s(I6
I14
tp15
I2
s(I18
I5
tp16
I2
s(I21
I8
tp17
I2
s(I9
I20
tp18
I2
s(I24
I28
tp19
I2
s(I12
I7
tp20
I2
s(I11
I26
tp21
I2
s(I5
I10
tp22
I2
s(I20
I28
tp23
I2
s(I16
I20
tp24
I2
s(I21
I17
tp25
I2
s(I17
I17
tp26
I2
s(I22
I30
tp27
I2
s(I9
I29
tp28
I2
s(I14
I26
tp29
I2
s(I10
I26
tp30
I2
s(I5
I29
tp31
I2
s(I6
I18
tp32
I2
s(I22
I17
tp33
I2
s(I18
I17
tp34
I2
s(I21
I4
tp35
I2
s(I12
I19
tp36
I1
s(I20
I34
tp37
I2
s(I21
I35
tp38
I2
s(I20
I8
tp39
I2
s(I18
I8
tp40
I2
s(I21
I13
tp41
I1
s(I9
I15
tp42
I1
s(I8
I20
tp43
I2
s(I15
I15
tp44
I1
s(I0
I0
tp45
I3
s(I2
I10
tp46
I2
s(I24
I35
tp47
I2
s(I3
I19
tp48
I1
s(I25
I34
tp49
I2
s(I6
I12
tp50
I2
s(I19
I20
tp51
I2
s(I22
I35
tp52
I2
s(I18
I3
tp53
I2
s(I18
I34
tp54
I2
s(I22
I5
tp55
I2
s(I18
I29
tp56
I2
s(I24
I30
tp57
I2
s(I14
I17
tp58
I2
s(I12
I1
tp59
I2
s(I25
I31
tp60
I1
s(I15
I20
tp61
I2
s(I24
I4
tp62
I2
s(I12
I31
tp63
I2
s(I13
I30
tp64
I1
s(I20
I30
tp65
I2
s(I18
I20
tp66
I2
s(I23
I25
tp67
I2
s(I14
I24
tp68
I2
s(I24
I11
tp69
I1
s(I14
I36
tp70
I2
s(I6
I16
tp71
I2
s(I4
I32
tp72
I1
s(I19
I8
tp73
I2
s(I21
I2
tp74
I2
s(I18
I36
tp75
I2
s(I12
I13
tp76
I2
s(I3
I6
tp77
I1
s(I1
I10
tp78
I2
s(I16
I17
tp79
I2
s(I6
I11
tp80
I2
s(I19
I17
tp81
I2
s(I18
I6
tp82
I2
s(I10
I32
tp83
I2
s(I18
I32
tp84
I2
s(I14
I12
tp85
I2
s(I12
I4
tp86
I2
s(I10
I20
tp87
I2
s(I25
I20
tp88
I2
s(I13
I9
tp89
I2
s(I11
I25
tp90
I1
s(I19
I22
tp91
I1
s(I20
I17
tp92
I2
s(I18
I1
tp93
I2
s(I21
I20
tp94
I2
s(I8
I29
tp95
I2
s(I14
I23
tp96
I2
s(I12
I3
tp97
I2
s(I10
I31
tp98
I2
s(I13
I28
tp99
I2
s(I14
I35
tp100
I2
s(I6
I5
tp101
I1
s(I4
I29
tp102
I2
s(I23
I27
tp103
I2
s(I12
I16
tp104
I2
s(I1
I29
tp105
I2
s(I25
I8
tp106
I2
s(I24
I20
tp107
I2
s(I12
I15
tp108
I2
s(I25
I17
tp109
I2
s(I24
I32
tp110
I2
s(I20
I20
tp111
I2
s(I22
I6
tp112
I2
s(I18
I30
tp113
I2
s(I12
I6
tp114
I2
s(I11
I27
tp115
I1
s(I12
I28
tp116
I2
s(I4
I10
tp117
I2
s(I23
I28
tp118
I2
s(I14
I21
tp119
I2
s(I10
I29
tp120
I2
s(I24
I8
tp121
I2
s(I1
I26
tp122
I1
s(I14
I33
tp123
I2
s(I6
I29
tp124
I2
s(I19
I7
tp125
I1
s(I14
I28
tp126
I2
s(I1
I19
tp127
I1
s(I15
I7
tp128
I1
s(I20
I33
tp129
I2
s(I6
I20
tp130
I2
s(I24
I22
tp131
I2
s(I14
I9
tp132
I2
s(I12
I9
tp133
I2
s(I13
I12
tp134
I2
s(I3
I10
tp135
I2
s(I4
I13
tp136
I1
s(I24
I34
tp137
I2
s(I6
I15
tp138
I2
s(I18
I2
tp139
I2
s(I22
I4
tp140
I2
s(I11
I33
tp141
I2
s(I18
I28
tp142
I2
s(I12
I0
tp143
I2
s(I25
I24
tp144
I2
s(I24
I3
tp145
I2
s(I13
I31
tp146
I2
s(I25
I36
tp147
I1
s(I7
I29
tp148
I2
s(I23
I30
tp149
I2
s(I12
I33
tp150
I2
s(I13
I36
tp151
I1
s(I14
I27
tp152
I2
s(I10
I27
tp153
I2
s(I0
I29
tp154
I2
s(I12
I21
tp155
I1
s(I6
I19
tp156
I2
s(I20
I2
tp157
I2
s(I23
I23
tp158
I2
s(I21
I3
tp159
I2
s(I22
I8
tp160
I2
s(I9
I5
tp161
I1
s(I24
I17
tp162
I2
s(I12
I12
tp163
I2
s(I13
I17
tp164
I2
s(I0
I10
tp165
I2
s(I20
I35
tp166
I2
s(I6
I10
tp167
I2
s(I21
I34
tp168
I1
s(I22
I3
tp169
I1
s(I18
I35
tp170
I2
s(I24
I24
tp171
I1
s(I6
I13
tp172
I2
s(I7
I8
tp173
I1
s(I22
I32
tp174
I1
s(I18
I0
tp175
I2
s(I23
I3
tp176
I1
s(I24
I31
tp177
I2
s(I14
I22
tp178
I2
s(I12
I2
tp179
I2
s(I10
I30
tp180
I2
s(I25
I0
tp181
I1
s(I14
I34
tp182
I2
s(I4
I28
tp183
I2
s(I19
I28
tp184
I2
s(I7
I1
tp185
I1
s(I20
I31
tp186
I2
s(I21
I30
tp187
I2
s(I20
I5
tp188
I1
s(I23
I24
tp189
I2
s(I14
I25
tp190
I2
s(I1
I30
tp191
I2
s(I2
I29
tp192
I1
s(I6
I17
tp193
I2
s(I7
I20
tp194
I2
s(I22
I20
tp195
I2
s(I23
I17
tp196
I2
s(I21
I1
tp197
I2
s(I23
I22
tp198
I2
s(I12
I14
tp199
I2
s(I0
I12
tp200
I1
s(I18
I7
tp201
I2
s(I10
I33
tp202
I2
s(I22
I1
tp203
I2
s(I18
I33
tp204
I2
s(I23
I4
tp205
I2
s(I24
I26
tp206
I2
s(I12
I5
tp207
I2
s(I25
I27
tp208
I1
s(I18
I24
tp209
I1
s(I14
I20
tp210
I2
s(I10
I28
tp211
I2
s(I25
I28
tp212
I2
s(I15
I17
tp213
I2
s(I23
I20
tp214
I2
s(I12
I26
tp215
I2
s(I14
I32
tp216
I2
s(I4
I30
tp217
I2
sa(I0
I0
tp218
a.