(lp1
(dp2
(I7
I25
tp3
I2
s(I13
I20
tp4
I2
s(I13
I13
tp5
I2
s(I4
I12
tp6
I2
s(I6
I14
tp7
I2
s(I8
I25
tp8
I2
s(I13
I6
tp9
I2
s(I4
I11
tp10
I2
s(I4
I17
tp11
I2
s(I13
I25
tp12
I2
s(I4
I24
tp13
I2
s(I6
I18
tp14
I2
s(I9
I6
tp15
I2
s(I13
I18
tp16
I2
s(I4
I7
tp17
I2
s(I5
I6
tp18
I2
s(I8
I20
tp19
I1
s(I13
I11
tp20
I2
s(I4
I14
tp21
I2
s(I4
I20
tp22
I2
s(I11
I6
tp23
I2
s(I4
I19
tp24
I2
s(I7
I6
tp25
I2
s(I6
I25
tp26
I2
s(I13
I23
tp27
I2
s(I13
I16
tp28
I2
s(I7
I18
tp29
I2
s(I13
I9
tp30
I2
s(I11
I25
tp31
I2
s(I4
I8
tp32
I2
s(I4
I22
tp33
I2
s(I12
I25
tp34
I2
s(I5
I16
tp35
I1
s(I10
I6
tp36
I2
s(I13
I21
tp37
I2
s(I5
I25
tp38
I2
s(I9
I10
tp39
I1
s(I12
I15
tp40
I1
s(I13
I14
tp41
I2
s(I12
I6
tp42
I2
s(I10
I18
tp43
I2
s(I13
I7
tp44
I2
s(I4
I10
tp45
I2
s(I4
I16
tp46
I2
s(I11
I16
tp47
I2
s(I8
I6
tp48
I2
s(I13
I19
tp49
I2
s(I4
I6
tp50
I2
s(I8
I13
tp51
I2
s(I11
I14
tp52
I2
s(I9
I18
tp53
I2
s(I13
I12
tp54
I2
s(I4
I13
tp55
I2
s(I6
I15
tp56
I2
s(I6
I6
tp57
I2
s(I4
I18
tp58
I2
s(I11
I18
tp59
I2
s(I13
I24
tp60
I2
s(I4
I25
tp61
I2
s(I13
I17
tp62
I2
s(I10
I13
tp63
I2
s(I13
I10
tp64
I2
s(I4
I15
tp65
I2
s(I6
I13
tp66
I2
s(I4
I21
tp67
I2
s(I9
I25
tp68
I2
s(I10
I25
tp69
I2
s(I13
I22
tp70
I2
s(I6
I17
tp71
I2
s(I8
I16
tp72
I3
s(I11
I13
tp73
I2
s(I13
I15
tp74
I2
s(I7
I13
tp75
I2
s(I13
I8
tp76
I2
s(I4
I9
tp77
I2
s(I4
I23
tp78
I2
s(I11
I17
tp79
I2
sa(I8
I16
tp80
a.