(lp1
(dp2
(I7
I25
tp3
I2
s(I13
I20
tp4
I2
s(I7
I22
tp5
I1
s(I8
I12
tp6
I1
s(I10
I14
tp7
I1
s(I9
I19
tp8
I1
s(I13
I13
tp9
I2
s(I4
I12
tp10
I2
s(I6
I14
tp11
I2
s(I10
I9
tp12
I1
s(I8
I25
tp13
I2
s(I13
I6
tp14
I2
s(I4
I11
tp15
I2
s(I4
I17
tp16
I2
s(I13
I25
tp17
I2
s(I4
I24
tp18
I2
s(I6
I18
tp19
I2
s(I9
I6
tp20
I2
s(I13
I18
tp21
I2
s(I4
I7
tp22
I2
s(I5
I6
tp23
I2
s(I13
I11
tp24
I2
s(I4
I14
tp25
I2
s(I4
I20
tp26
I2
s(I11
I6
tp27
I2
s(I6
I7
tp28
I1
s(I4
I19
tp29
I2
s(I7
I6
tp30
I2
s(I6
I25
tp31
I2
s(I13
I23
tp32
I2
s(I13
I16
tp33
I2
s(I7
I18
tp34
I2
s(I13
I9
tp35
I2
s(I11
I25
tp36
I2
s(I4
I8
tp37
I2
s(I5
I13
tp38
I1
s(I4
I22
tp39
I2
s(I12
I25
tp40
I2
s(I10
I6
tp41
I2
s(I13
I21
tp42
I2
s(I5
I25
tp43
I2
s(I13
I14
tp44
I2
s(I12
I6
tp45
I2
s(I10
I18
tp46
I2
s(I13
I7
tp47
I2
s(I4
I10
tp48
I2
s(I4
I16
tp49
I2
s(I11
I16
tp50
I2
s(I8
I6
tp51
I2
s(I12
I18
tp52
I1
s(I13
I19
tp53
I2
s(I4
I6
tp54
I2
s(I5
I7
tp55
I3
s(I7
I17
tp56
I1
s(I8
I13
tp57
I2
s(I11
I14
tp58
I2
s(I9
I18
tp59
I2
s(I13
I12
tp60
I2
s(I4
I13
tp61
I2
s(I6
I15
tp62
I2
s(I11
I7
tp63
I1
s(I6
I6
tp64
I2
s(I4
I18
tp65
I2
s(I6
I24
tp66
I1
s(I11
I18
tp67
I2
s(I13
I24
tp68
I2
s(I4
I25
tp69
I2
s(I13
I17
tp70
I2
s(I10
I13
tp71
I2
s(I9
I16
tp72
I1
s(I13
I10
tp73
I2
s(I4
I15
tp74
I2
s(I6
I13
tp75
I2
s(I4
I21
tp76
I2
s(I9
I25
tp77
I2
s(I10
I25
tp78
I2
s(I13
I22
tp79
I2
s(I6
I17
tp80
I2
s(I11
I13
tp81
I2
s(I13
I15
tp82
I2
s(I7
I13
tp83
I2
s(I13
I8
tp84
I2
s(I11
I24
tp85
I1
s(I4
I9
tp86
I2
s(I4
I23
tp87
I2
s(I11
I17
tp88
I2
s(I8
I15
tp89
I1
sa(I5
I7
tp90
a.