(lp1
(dp2
(I7
I3
tp3
I0
s(I5
I31
tp4
I0
s(I20
I25
tp5
I0
s(I3
I35
tp6
I0
s(I16
I9
tp7
I0
s(I6
I28
tp8
I0
s(I21
I28
tp9
I0
s(I4
I36
tp10
I0
s(I19
I4
tp11
I0
s(I17
I20
tp12
I0
s(I7
I25
tp13
I2
s(I22
I19
tp14
I0
s(I20
I7
tp15
I0
s(I18
I19
tp16
I0
s(I23
I26
tp17
I0
s(I21
I6
tp18
I0
s(I8
I5
tp19
I0
s(I13
I32
tp20
I0
s(I9
I0
tp21
I0
s(I14
I31
tp22
I0
s(I10
I7
tp23
I0
s(I15
I30
tp24
I0
s(I11
I22
tp25
I0
s(I0
I17
tp26
I0
s(I24
I14
tp27
I0
s(I14
I1
tp28
I0
s(I12
I17
tp29
I0
s(I1
I28
tp30
I0
s(I25
I15
tp31
I0
s(I15
I4
tp32
I0
s(I13
I20
tp33
I2
s(I2
I27
tp34
I0
s(I3
I2
tp35
I0
s(I15
I34
tp36
I0
s(I4
I5
tp37
I0
s(I5
I24
tp38
I0
s(I20
I32
tp39
I0
s(I16
I0
tp40
I0
s(I6
I23
tp41
I0
s(I4
I35
tp42
I0
s(I19
I13
tp43
I0
s(I17
I13
tp44
I0
s(I7
I22
tp45
I0
s(I5
I34
tp46
I0
s(I20
I14
tp47
I0
s(I18
I10
tp48
I0
s(I23
I19
tp49
I0
s(I21
I15
tp50
I0
s(I10
I36
tp51
I0
s(I8
I12
tp52
I0
s(I22
I12
tp53
I0
s(I9
I9
tp54
I0
s(I23
I9
tp55
I0
s(I10
I14
tp56
I0
s(I8
I18
tp57
I0
s(I11
I15
tp58
I0
s(I9
I19
tp59
I0
s(I24
I21
tp60
I0
s(I14
I8
tp61
I0
s(I12
I8
tp62
I0
s(I1
I21
tp63
I0
s(I25
I16
tp64
I0
s(I15
I13
tp65
I0
s(I13
I13
tp66
I2
s(I2
I18
tp67
I0
s(I0
I14
tp68
I0
s(I3
I11
tp69
I0
s(I1
I15
tp70
I0
s(I4
I12
tp71
I2
s(I2
I12
tp72
I0
s(I0
I36
tp73
I0
s(I24
I33
tp74
I0
s(I5
I1
tp75
I0
s(I3
I17
tp76
I0
s(I1
I33
tp77
I0
s(I16
I7
tp78
I0
s(I6
I14
tp79
I2
s(I19
I18
tp80
I0
s(I17
I6
tp81
I0
s(I7
I15
tp82
I0
s(I20
I21
tp83
I0
s(I18
I5
tp84
I0
s(I16
I29
tp85
I0
s(I6
I32
tp86
I0
s(I21
I8
tp87
I0
s(I17
I24
tp88
I0
s(I22
I7
tp89
I0
s(I18
I31
tp90
I0
s(I23
I6
tp91
I0
s(I10
I9
tp92
I0
s(I8
I25
tp93
I2
s(I11
I4
tp94
I0
s(I9
I20
tp95
I0
s(I24
I28
tp96
I0
s(I14
I19
tp97
I0
s(I12
I7
tp98
I0
s(I10
I19
tp99
I0
s(I25
I25
tp100
I0
s(I15
I10
tp101
I0
s(I13
I6
tp102
I2
s(I11
I26
tp103
I0
s(I0
I5
tp104
I0
s(I23
I34
tp105
I0
s(I12
I29
tp106
I0
s(I1
I0
tp107
I0
s(I25
I3
tp108
I0
s(I4
I11
tp109
I2
s(I2
I7
tp110
I0
s(I5
I10
tp111
I0
s(I3
I22
tp112
I0
s(I6
I1
tp113
I0
s(I4
I17
tp114
I2
s(I19
I27
tp115
I0
s(I2
I33
tp116
I0
s(I7
I4
tp117
I0
s(I22
I36
tp118
I0
s(I5
I20
tp119
I0
s(I20
I28
tp120
I0
s(I16
I20
tp121
I0
s(I6
I27
tp122
I0
s(I21
I17
tp123
I0
s(I19
I1
tp124
I0
s(I17
I17
tp125
I0
s(I7
I34
tp126
I0
s(I22
I30
tp127
I0
s(I18
I22
tp128
I0
s(I23
I31
tp129
I0
s(I12
I32
tp130
I0
s(I8
I0
tp131
I0
s(I9
I29
tp132
I0
s(I14
I26
tp133
I0
s(I10
I26
tp134
I0
s(I15
I19
tp135
I0
s(I11
I19
tp136
I0
s(I0
I28
tp137
I0
s(I24
I9
tp138
I0
s(I12
I20
tp139
I0
s(I1
I25
tp140
I0
s(I25
I4
tp141
I0
s(I13
I25
tp142
I2
s(I2
I30
tp143
I0
s(I3
I31
tp144
I0
s(I4
I24
tp145
I2
s(I19
I32
tp146
I0
s(I5
I29
tp147
I0
s(I20
I27
tp148
I0
s(I16
I11
tp149
I0
s(I6
I18
tp150
I2
s(I21
I26
tp151
I0
s(I19
I6
tp152
I0
s(I18
I32
tp153
I0
s(I8
I33
tp154
I0
s(I7
I27
tp155
I0
s(I22
I17
tp156
I0
s(I20
I1
tp157
I0
s(I18
I17
tp158
I0
s(I16
I33
tp159
I0
s(I21
I4
tp160
I0
s(I8
I7
tp161
I0
s(I22
I11
tp162
I0
s(I9
I6
tp163
I2
s(I14
I29
tp164
I0
s(I10
I5
tp165
I0
s(I15
I24
tp166
I0
s(I11
I8
tp167
I0
s(I0
I19
tp168
I0
s(I24
I16
tp169
I0
s(I14
I7
tp170
I0
s(I12
I19
tp171
I0
s(I1
I18
tp172
I0
s(I25
I13
tp173
I0
s(I15
I6
tp174
I0
s(I13
I18
tp175
I2
s(I2
I25
tp176
I0
s(I0
I9
tp177
I0
s(I23
I32
tp178
I0
s(I3
I4
tp179
I0
s(I4
I7
tp180
I2
s(I5
I6
tp181
I2
s(I20
I34
tp182
I0
s(I16
I2
tp183
I0
s(I6
I21
tp184
I0
s(I21
I35
tp185
I0
s(I19
I15
tp186
I0
s(I17
I3
tp187
I0
s(I7
I16
tp188
I0
s(I5
I32
tp189
I0
s(I20
I8
tp190
I0
s(I18
I8
tp191
I0
s(I16
I24
tp192
I0
s(I21
I13
tp193
I0
s(I10
I34
tp194
I0
s(I8
I14
tp195
I0
s(I22
I2
tp196
I0
s(I9
I15
tp197
I0
s(I23
I11
tp198
I0
s(I10
I12
tp199
I0
s(I8
I20
tp200
I1
s(I11
I1
tp201
I0
s(I9
I17
tp202
I0
s(I24
I23
tp203
I0
s(I14
I14
tp204
I0
s(I12
I10
tp205
I0
s(I10
I22
tp206
I0
s(I25
I22
tp207
I0
s(I15
I15
tp208
I0
s(I13
I11
tp209
I2
s(I2
I16
tp210
I0
s(I0
I0
tp211
I0
s(I3
I13
tp212
I0
s(I1
I13
tp213
I0
s(I4
I14
tp214
I2
s(I2
I10
tp215
I0
s(I24
I35
tp216
I0
s(I5
I15
tp217
I0
s(I3
I19
tp218
I0
s(I25
I34
tp219
I0
s(I6
I12
tp220
I0
s(I4
I20
tp221
I2
s(I19
I20
tp222
I0
s(I2
I36
tp223
I0
s(I17
I4
tp224
I0
s(I7
I9
tp225
I0
s(I22
I35
tp226
I0
s(I20
I23
tp227
I0
s(I18
I3
tp228
I0
s(I16
I31
tp229
I0
s(I21
I22
tp230
I0
s(I18
I34
tp231
I0
s(I17
I30
tp232
I0
s(I22
I5
tp233
I0
s(I11
I32
tp234
I0
s(I18
I29
tp235
I0
s(I23
I0
tp236
I0
s(I8
I27
tp237
I0
s(I11
I6
tp238
I2
s(I9
I26
tp239
I0
s(I24
I30
tp240
I0
s(I14
I17
tp241
I0
s(I12
I1
tp242
I0
s(I10
I17
tp243
I0
s(I25
I31
tp244
I0
s(I15
I20
tp245
I0
s(I13
I4
tp246
I0
s(I11
I28
tp247
I0
s(I0
I7
tp248
I0
s(I24
I4
tp249
I0
s(I12
I31
tp250
I0
s(I1
I6
tp251
I0
s(I25
I1
tp252
I0
s(I13
I30
tp253
I0
s(I2
I5
tp254
I0
s(I5
I8
tp255
I0
s(I3
I24
tp256
I0
s(I6
I7
tp257
I0
s(I4
I19
tp258
I2
s(I19
I29
tp259
I0
s(I7
I6
tp260
I2
s(I5
I18
tp261
I0
s(I20
I30
tp262
I0
s(I16
I22
tp263
I0
s(I6
I25
tp264
I2
s(I21
I31
tp265
I0
s(I19
I3
tp266
I0
s(I17
I23
tp267
I0
s(I7
I28
tp268
I0
s(I22
I28
tp269
I0
s(I20
I4
tp270
I0
s(I18
I20
tp271
I0
s(I23
I25
tp272
I0
s(I12
I34
tp273
I0
s(I8
I2
tp274
I0
s(I13
I35
tp275
I0
s(I9
I3
tp276
I0
s(I14
I24
tp277
I0
s(I10
I24
tp278
I0
s(I15
I29
tp279
I0
s(I11
I21
tp280
I0
s(I0
I30
tp281
I0
s(I24
I11
tp282
I0
s(I14
I2
tp283
I0
s(I12
I22
tp284
I0
s(I1
I31
tp285
I0
s(I25
I10
tp286
I0
s(I13
I23
tp287
I2
s(I2
I28
tp288
I0
s(I14
I36
tp289
I0
s(I3
I1
tp290
I0
s(I15
I33
tp291
I0
s(I4
I26
tp292
I0
s(I19
I34
tp293
I0
s(I5
I27
tp294
I0
s(I16
I13
tp295
I0
s(I6
I16
tp296
I0
s(I21
I24
tp297
I0
s(I4
I32
tp298
I0
s(I19
I8
tp299
I0
s(I8
I35
tp300
I0
s(I7
I21
tp301
I0
s(I22
I23
tp302
I0
s(I20
I3
tp303
I0
s(I9
I34
tp304
I0
s(I16
I35
tp305
I0
s(I21
I2
tp306
I0
s(I18
I36
tp307
I0
s(I8
I9
tp308
I0
s(I22
I9
tp309
I0
s(I9
I4
tp310
I0
s(I23
I12
tp311
I0
s(I10
I3
tp312
I0
s(I15
I26
tp313
I0
s(I18
I13
tp314
I0
s(I11
I10
tp315
I0
s(I0
I21
tp316
I0
s(I24
I18
tp317
I0
s(I14
I5
tp318
I0
s(I12
I13
tp319
I0
s(I1
I16
tp320
I0
s(I25
I19
tp321
I0
s(I15
I0
tp322
I0
s(I13
I16
tp323
I2
s(I2
I23
tp324
I0
s(I0
I11
tp325
I0
s(I3
I6
tp326
I0
s(I1
I10
tp327
I0
s(I17
I15
tp328
I0
s(I4
I1
tp329
I0
s(I0
I33
tp330
I0
s(I23
I36
tp331
I0
s(I5
I4
tp332
I0
s(I17
I33
tp333
I0
s(I16
I4
tp334
I0
s(I6
I11
tp335
I0
s(I21
I33
tp336
I0
s(I19
I17
tp337
I0
s(I17
I1
tp338
I0
s(I7
I18
tp339
I2
s(I20
I10
tp340
I0
s(I18
I6
tp341
I0
s(I16
I26
tp342
I0
s(I21
I11
tp343
I0
s(I10
I32
tp344
I0
s(I17
I27
tp345
I0
s(I22
I0
tp346
I0
s(I18
I12
tp347
I0
s(I9
I13
tp348
I0
s(I23
I5
tp349
I0
s(I10
I10
tp350
I0
s(I8
I22
tp351
I0
s(I23
I17
tp352
I0
s(I11
I3
tp353
I0
s(I9
I23
tp354
I0
s(I24
I25
tp355
I0
s(I14
I12
tp356
I0
s(I12
I4
tp357
I0
s(I10
I20
tp358
I0
s(I25
I20
tp359
I0
s(I15
I9
tp360
I0
s(I13
I9
tp361
I2
s(I11
I25
tp362
I2
s(I0
I2
tp363
I0
s(I3
I15
tp364
I0
s(I1
I3
tp365
I0
s(I4
I8
tp366
I2
s(I2
I8
tp367
I0
s(I5
I13
tp368
I0
s(I3
I21
tp369
I0
s(I17
I32
tp370
I0
s(I25
I32
tp371
I0
s(I6
I2
tp372
I0
s(I4
I22
tp373
I2
s(I19
I22
tp374
I0
s(I2
I34
tp375
I0
s(I7
I11
tp376
I0
s(I22
I33
tp377
I0
s(I5
I23
tp378
I0
s(I20
I17
tp379
I0
s(I18
I1
tp380
I0
s(I16
I17
tp381
I0
s(I6
I36
tp382
I0
s(I21
I20
tp383
I0
s(I17
I28
tp384
I0
s(I7
I33
tp385
I0
s(I22
I27
tp386
I0
s(I11
I34
tp387
I0
s(I18
I27
tp388
I0
s(I23
I2
tp389
I0
s(I8
I29
tp390
I0
s(I9
I24
tp391
I0
s(I14
I23
tp392
I0
s(I12
I3
tp393
I0
s(I10
I31
tp394
I0
s(I25
I29
tp395
I0
s(I15
I22
tp396
I0
s(I13
I2
tp397
I0
s(I11
I30
tp398
I0
s(I0
I25
tp399
I0
s(I24
I6
tp400
I0
s(I12
I25
tp401
I2
s(I1
I4
tp402
I0
s(I25
I7
tp403
I0
s(I13
I28
tp404
I0
s(I2
I3
tp405
I0
s(I14
I35
tp406
I0
s(I3
I26
tp407
I0
s(I6
I5
tp408
I0
s(I17
I9
tp409
I0
s(I4
I29
tp410
I0
s(I19
I31
tp411
I0
s(I7
I0
tp412
I0
s(I5
I16
tp413
I1
s(I20
I24
tp414
I0
s(I3
I32
tp415
I0
s(I16
I8
tp416
I0
s(I6
I31
tp417
I0
s(I21
I29
tp418
I0
s(I19
I5
tp419
I0
s(I17
I21
tp420
I0
s(I7
I30
tp421
I0
s(I22
I18
tp422
I0
s(I20
I6
tp423
I0
s(I18
I18
tp424
I0
s(I23
I27
tp425
I0
s(I17
I36
tp426
I0
s(I8
I4
tp427
I0
s(I13
I33
tp428
I0
s(I18
I14
tp429
I0
s(I9
I1
tp430
I0
s(I14
I30
tp431
I0
s(I10
I6
tp432
I2
s(I15
I31
tp433
I0
s(I23
I23
tp434
I0
s(I11
I23
tp435
I0
s(I0
I16
tp436
I0
s(I24
I13
tp437
I0
s(I14
I0
tp438
I0
s(I12
I16
tp439
I0
s(I1
I29
tp440
I0
s(I25
I8
tp441
I0
s(I15
I5
tp442
I0
s(I13
I21
tp443
I2
s(I2
I26
tp444
I0
s(I3
I3
tp445
I0
s(I15
I35
tp446
I0
s(I4
I4
tp447
I0
s(I19
I36
tp448
I0
s(I5
I25
tp449
I2
s(I17
I35
tp450
I0
s(I16
I15
tp451
I0
s(I6
I22
tp452
I0
s(I4
I34
tp453
I0
s(I19
I10
tp454
I0
s(I17
I14
tp455
I0
s(I7
I23
tp456
I0
s(I22
I21
tp457
I0
s(I5
I35
tp458
I0
s(I20
I13
tp459
I0
s(I9
I32
tp460
I0
s(I23
I16
tp461
I0
s(I21
I0
tp462
I0
s(I8
I11
tp463
I0
s(I22
I15
tp464
I0
s(I9
I10
tp465
I1
s(I23
I14
tp466
I0
s(I10
I1
tp467
I0
s(I8
I17
tp468
I0
s(I11
I12
tp469
I0
s(I0
I23
tp470
I0
s(I24
I20
tp471
I0
s(I14
I11
tp472
I0
s(I12
I15
tp473
I1
s(I1
I22
tp474
I0
s(I25
I17
tp475
I0
s(I15
I2
tp476
I0
s(I13
I14
tp477
I2
s(I2
I21
tp478
I0
s(I0
I13
tp479
I0
s(I3
I8
tp480
I0
s(I1
I8
tp481
I0
s(I4
I3
tp482
I0
s(I2
I15
tp483
I0
s(I0
I35
tp484
I0
s(I24
I32
tp485
I0
s(I5
I2
tp486
I0
s(I1
I34
tp487
I0
s(I16
I6
tp488
I0
s(I6
I9
tp489
I0
s(I17
I11
tp490
I0
s(I19
I19
tp491
I0
s(I17
I7
tp492
I0
s(I7
I12
tp493
I0
s(I20
I20
tp494
I0
s(I18
I4
tp495
I0
s(I16
I28
tp496
I0
s(I6
I35
tp497
I0
s(I21
I9
tp498
I0
s(I17
I25
tp499
I0
s(I22
I6
tp500
I0
s(I18
I30
tp501
I0
s(I23
I7
tp502
I0
s(I10
I8
tp503
I0
s(I8
I24
tp504
I0
s(I11
I5
tp505
I0
s(I9
I21
tp506
I0
s(I24
I27
tp507
I0
s(I14
I18
tp508
I0
s(I12
I6
tp509
I2
s(I10
I18
tp510
I2
s(I25
I26
tp511
I0
s(I15
I11
tp512
I0
s(I13
I7
tp513
I2
s(I11
I27
tp514
I0
s(I0
I4
tp515
I0
s(I24
I1
tp516
I0
s(I12
I28
tp517
I0
s(I1
I1
tp518
I0
s(I4
I10
tp519
I2
s(I2
I6
tp520
I0
s(I5
I11
tp521
I0
s(I3
I23
tp522
I0
s(I6
I0
tp523
I0
s(I4
I16
tp524
I2
s(I19
I24
tp525
I0
s(I2
I32
tp526
I0
s(I7
I5
tp527
I0
s(I5
I21
tp528
I0
s(I20
I19
tp529
I0
s(I16
I19
tp530
I0
s(I6
I26
tp531
I0
s(I21
I18
tp532
I0
s(I17
I18
tp533
I0
s(I7
I35
tp534
I0
s(I22
I25
tp535
I0
s(I11
I36
tp536
I0
s(I18
I25
tp537
I0
s(I23
I28
tp538
I0
s(I8
I31
tp539
I0
s(I9
I30
tp540
I0
s(I14
I21
tp541
I0
s(I10
I29
tp542
I0
s(I15
I16
tp543
I0
s(I13
I0
tp544
I0
s(I11
I16
tp545
I2
s(I0
I27
tp546
I0
s(I24
I8
tp547
I0
s(I12
I27
tp548
I0
s(I1
I26
tp549
I0
s(I25
I5
tp550
I0
s(I13
I26
tp551
I0
s(I2
I1
tp552
I0
s(I14
I33
tp553
I0
s(I3
I28
tp554
I0
s(I15
I36
tp555
I0
s(I4
I31
tp556
I0
s(I19
I33
tp557
I0
s(I7
I2
tp558
I0
s(I5
I30
tp559
I0
s(I20
I26
tp560
I0
s(I3
I34
tp561
I0
s(I16
I10
tp562
I0
s(I6
I29
tp563
I0
s(I21
I27
tp564
I0
s(I19
I7
tp565
I0
s(I8
I32
tp566
I0
s(I7
I24
tp567
I0
s(I22
I16
tp568
I0
s(I20
I0
tp569
I0
s(I18
I16
tp570
I0
s(I16
I32
tp571
I0
s(I21
I5
tp572
I0
s(I8
I6
tp573
I2
s(I22
I10
tp574
I0
s(I9
I7
tp575
I0
s(I14
I28
tp576
I0
s(I10
I4
tp577
I0
s(I15
I25
tp578
I0
s(I11
I9
tp579
I0
s(I0
I18
tp580
I0
s(I24
I15
tp581
I0
s(I14
I6
tp582
I0
s(I12
I18
tp583
I0
s(I1
I19
tp584
I0
s(I25
I14
tp585
I0
s(I15
I7
tp586
I0
s(I13
I19
tp587
I2
s(I2
I24
tp588
I0
s(I0
I8
tp589
I0
s(I3
I5
tp590
I0
s(I21
I7
tp591
I0
s(I4
I6
tp592
I2
s(I5
I7
tp593
I0
s(I20
I33
tp594
I0
s(I16
I1
tp595
I0
s(I6
I20
tp596
I0
s(I21
I36
tp597
I0
s(I19
I12
tp598
I0
s(I18
I33
tp599
I0
s(I17
I12
tp600
I0
s(I7
I17
tp601
I0
s(I5
I33
tp602
I0
s(I20
I15
tp603
I0
s(I18
I11
tp604
I0
s(I23
I18
tp605
I0
s(I24
I2
tp606
I0
s(I21
I14
tp607
I0
s(I8
I13
tp608
I2
s(I22
I13
tp609
I0
s(I9
I8
tp610
I0
s(I23
I8
tp611
I0
s(I10
I15
tp612
I0
s(I8
I19
tp613
I0
s(I11
I14
tp614
I2
s(I9
I18
tp615
I2
s(I24
I22
tp616
I0
s(I14
I9
tp617
I0
s(I12
I9
tp618
I0
s(I1
I20
tp619
I0
s(I25
I23
tp620
I0
s(I15
I12
tp621
I0
s(I13
I12
tp622
I2
s(I2
I19
tp623
I0
s(I0
I15
tp624
I0
s(I23
I35
tp625
I0
s(I3
I10
tp626
I0
s(I1
I14
tp627
I0
s(I4
I13
tp628
I2
s(I2
I13
tp629
I0
s(I24
I34
tp630
I0
s(I5
I0
tp631
I0
s(I3
I16
tp632
I0
s(I1
I32
tp633
I0
s(I25
I35
tp634
I0
s(I6
I15
tp635
I2
s(I19
I21
tp636
I0
s(I17
I5
tp637
I0
s(I7
I14
tp638
I0
s(I22
I34
tp639
I0
s(I18
I9
tp640
I0
s(I18
I2
tp641
I0
s(I16
I30
tp642
I0
s(I6
I33
tp643
I0
s(I21
I23
tp644
I0
s(I17
I31
tp645
I0
s(I7
I36
tp646
I0
s(I22
I4
tp647
I0
s(I11
I33
tp648
I0
s(I18
I28
tp649
I0
s(I23
I1
tp650
I0
s(I8
I26
tp651
I0
s(I11
I7
tp652
I0
s(I9
I27
tp653
I0
s(I24
I29
tp654
I0
s(I14
I16
tp655
I0
s(I12
I0
tp656
I0
s(I10
I16
tp657
I0
s(I25
I24
tp658
I0
s(I15
I21
tp659
I0
s(I13
I5
tp660
I0
s(I11
I29
tp661
I0
s(I0
I6
tp662
I0
s(I24
I3
tp663
I0
s(I12
I30
tp664
I0
s(I1
I7
tp665
I0
s(I25
I2
tp666
I0
s(I13
I31
tp667
I0
s(I2
I4
tp668
I0
s(I5
I9
tp669
I0
s(I3
I25
tp670
I0
s(I25
I36
tp671
I0
s(I6
I6
tp672
I2
s(I4
I18
tp673
I2
s(I19
I26
tp674
I0
s(I7
I7
tp675
I0
s(I5
I19
tp676
I0
s(I20
I29
tp677
I0
s(I16
I21
tp678
I0
s(I6
I24
tp679
I0
s(I21
I16
tp680
I0
s(I19
I0
tp681
I0
s(I18
I35
tp682
I0
s(I17
I16
tp683
I0
s(I7
I29
tp684
I0
s(I22
I31
tp685
I0
s(I18
I23
tp686
I0
s(I23
I30
tp687
I0
s(I12
I33
tp688
I0
s(I8
I1
tp689
I0
s(I13
I36
tp690
I0
s(I9
I28
tp691
I0
s(I14
I27
tp692
I0
s(I10
I27
tp693
I0
s(I15
I18
tp694
I0
s(I11
I18
tp695
I2
s(I0
I29
tp696
I0
s(I24
I10
tp697
I0
s(I12
I21
tp698
I0
s(I1
I24
tp699
I0
s(I25
I11
tp700
I0
s(I13
I24
tp701
I2
s(I2
I31
tp702
I0
s(I23
I33
tp703
I0
s(I3
I30
tp704
I0
s(I4
I25
tp705
I2
s(I19
I35
tp706
I0
s(I5
I28
tp707
I0
s(I20
I36
tp708
I0
s(I3
I36
tp709
I0
s(I16
I12
tp710
I0
s(I6
I19
tp711
I0
s(I21
I25
tp712
I0
s(I19
I9
tp713
I0
s(I8
I34
tp714
I0
s(I7
I26
tp715
I0
s(I22
I22
tp716
I0
s(I20
I2
tp717
I0
s(I9
I35
tp718
I0
s(I16
I34
tp719
I0
s(I21
I3
tp720
I0
s(I8
I8
tp721
I0
s(I22
I8
tp722
I0
s(I9
I5
tp723
I0
s(I23
I13
tp724
I0
s(I10
I2
tp725
I0
s(I15
I27
tp726
I0
s(I11
I11
tp727
I0
s(I0
I20
tp728
I0
s(I24
I17
tp729
I0
s(I14
I4
tp730
I0
s(I12
I12
tp731
I0
s(I1
I17
tp732
I0
s(I25
I12
tp733
I0
s(I15
I1
tp734
I0
s(I13
I17
tp735
I2
s(I2
I22
tp736
I0
s(I0
I10
tp737
I0
s(I3
I7
tp738
I0
s(I1
I11
tp739
I0
s(I4
I0
tp740
I0
s(I0
I32
tp741
I0
s(I5
I5
tp742
I0
s(I20
I35
tp743
I0
s(I16
I3
tp744
I0
s(I6
I10
tp745
I0
s(I21
I34
tp746
I0
s(I19
I14
tp747
I0
s(I17
I2
tp748
I0
s(I7
I19
tp749
I0
s(I20
I9
tp750
I0
s(I9
I36
tp751
I0
s(I16
I25
tp752
I0
s(I21
I12
tp753
I0
s(I10
I35
tp754
I0
s(I8
I15
tp755
I0
s(I22
I3
tp756
I0
s(I9
I14
tp757
I0
s(I23
I10
tp758
I0
s(I10
I13
tp759
I2
s(I8
I21
tp760
I0
s(I11
I0
tp761
I0
s(I9
I16
tp762
I0
s(I24
I24
tp763
I0
s(I14
I15
tp764
I0
s(I12
I11
tp765
I0
s(I10
I23
tp766
I0
s(I25
I21
tp767
I0
s(I15
I14
tp768
I0
s(I13
I10
tp769
I2
s(I2
I17
tp770
I0
s(I0
I1
tp771
I0
s(I3
I12
tp772
I0
s(I1
I12
tp773
I0
s(I4
I15
tp774
I2
s(I2
I11
tp775
I0
s(I24
I36
tp776
I0
s(I5
I14
tp777
I0
s(I3
I18
tp778
I0
s(I25
I33
tp779
I0
s(I6
I13
tp780
I2
s(I4
I21
tp781
I2
s(I19
I23
tp782
I0
s(I7
I8
tp783
I0
s(I22
I32
tp784
I0
s(I20
I16
tp785
I0
s(I18
I0
tp786
I0
s(I16
I16
tp787
I0
s(I21
I21
tp788
I0
s(I17
I29
tp789
I0
s(I22
I26
tp790
I0
s(I11
I35
tp791
I0
s(I18
I26
tp792
I0
s(I23
I3
tp793
I0
s(I12
I36
tp794
I0
s(I8
I28
tp795
I0
s(I9
I25
tp796
I2
s(I24
I31
tp797
I0
s(I14
I22
tp798
I0
s(I12
I2
tp799
I0
s(I10
I30
tp800
I0
s(I25
I30
tp801
I0
s(I15
I23
tp802
I0
s(I13
I3
tp803
I0
s(I11
I31
tp804
I0
s(I0
I24
tp805
I0
s(I24
I5
tp806
I0
s(I12
I24
tp807
I0
s(I1
I5
tp808
I0
s(I25
I0
tp809
I0
s(I13
I29
tp810
I0
s(I2
I2
tp811
I0
s(I14
I34
tp812
I0
s(I3
I27
tp813
I0
s(I6
I4
tp814
I0
s(I4
I28
tp815
I0
s(I19
I28
tp816
I0
s(I7
I1
tp817
I0
s(I5
I17
tp818
I0
s(I20
I31
tp819
I0
s(I3
I33
tp820
I0
s(I16
I23
tp821
I0
s(I6
I30
tp822
I0
s(I21
I30
tp823
I0
s(I19
I2
tp824
I0
s(I17
I22
tp825
I0
s(I7
I31
tp826
I0
s(I22
I29
tp827
I0
s(I20
I5
tp828
I0
s(I18
I21
tp829
I0
s(I23
I24
tp830
I0
s(I12
I35
tp831
I0
s(I8
I3
tp832
I0
s(I13
I34
tp833
I0
s(I9
I2
tp834
I0
s(I14
I25
tp835
I0
s(I10
I25
tp836
I2
s(I15
I28
tp837
I0
s(I11
I20
tp838
I0
s(I0
I31
tp839
I0
s(I24
I12
tp840
I0
s(I14
I3
tp841
I0
s(I12
I23
tp842
I0
s(I1
I30
tp843
I0
s(I25
I9
tp844
I0
s(I13
I22
tp845
I2
s(I2
I29
tp846
I0
s(I3
I0
tp847
I0
s(I15
I32
tp848
I0
s(I17
I8
tp849
I0
s(I4
I27
tp850
I0
s(I5
I26
tp851
I0
s(I16
I14
tp852
I0
s(I6
I17
tp853
I2
s(I4
I33
tp854
I0
s(I19
I11
tp855
I0
s(I8
I36
tp856
I0
s(I7
I20
tp857
I0
s(I22
I20
tp858
I0
s(I5
I36
tp859
I0
s(I20
I12
tp860
I0
s(I9
I33
tp861
I0
s(I16
I36
tp862
I0
s(I21
I1
tp863
I0
s(I8
I10
tp864
I0
s(I22
I14
tp865
I0
s(I18
I15
tp866
I0
s(I9
I11
tp867
I0
s(I23
I15
tp868
I0
s(I10
I0
tp869
I0
s(I8
I16
tp870
I3
s(I23
I22
tp871
I0
s(I11
I13
tp872
I2
s(I0
I22
tp873
I0
s(I24
I19
tp874
I0
s(I14
I10
tp875
I0
s(I12
I14
tp876
I0
s(I1
I23
tp877
I0
s(I25
I18
tp878
I0
s(I15
I3
tp879
I0
s(I13
I15
tp880
I2
s(I2
I20
tp881
I0
s(I0
I12
tp882
I0
s(I3
I9
tp883
I0
s(I1
I9
tp884
I0
s(I4
I2
tp885
I0
s(I2
I14
tp886
I0
s(I0
I34
tp887
I0
s(I5
I3
tp888
I0
s(I17
I34
tp889
I0
s(I1
I35
tp890
I0
s(I16
I5
tp891
I0
s(I6
I8
tp892
I0
s(I21
I32
tp893
I0
s(I19
I16
tp894
I0
s(I17
I0
tp895
I0
s(I7
I13
tp896
I2
s(I20
I11
tp897
I0
s(I18
I7
tp898
I0
s(I16
I27
tp899
I0
s(I6
I34
tp900
I0
s(I21
I10
tp901
I0
s(I10
I33
tp902
I0
s(I17
I26
tp903
I0
s(I22
I1
tp904
I0
s(I9
I12
tp905
I0
s(I23
I4
tp906
I0
s(I10
I11
tp907
I0
s(I8
I23
tp908
I0
s(I11
I2
tp909
I0
s(I9
I22
tp910
I0
s(I24
I26
tp911
I0
s(I14
I13
tp912
I0
s(I12
I5
tp913
I0
s(I10
I21
tp914
I0
s(I25
I27
tp915
I0
s(I15
I8
tp916
I0
s(I13
I8
tp917
I2
s(I11
I24
tp918
I0
s(I0
I3
tp919
I0
s(I24
I0
tp920
I0
s(I3
I14
tp921
I0
s(I20
I22
tp922
I0
s(I1
I2
tp923
I0
s(I4
I9
tp924
I2
s(I23
I21
tp925
I0
s(I2
I9
tp926
I0
s(I5
I12
tp927
I0
s(I3
I20
tp928
I0
s(I1
I36
tp929
I0
s(I6
I3
tp930
I0
s(I17
I10
tp931
I0
s(I4
I23
tp932
I2
s(I19
I25
tp933
I0
s(I2
I35
tp934
I0
s(I7
I10
tp935
I0
s(I5
I22
tp936
I0
s(I20
I18
tp937
I0
s(I16
I18
tp938
I0
s(I21
I19
tp939
I0
s(I17
I19
tp940
I0
s(I7
I32
tp941
I0
s(I22
I24
tp942
I0
s(I18
I24
tp943
I0
s(I23
I29
tp944
I0
s(I8
I30
tp945
I0
s(I9
I31
tp946
I0
s(I14
I20
tp947
I0
s(I10
I28
tp948
I0
s(I25
I28
tp949
I0
s(I15
I17
tp950
I0
s(I13
I1
tp951
I0
s(I11
I17
tp952
I2
s(I0
I26
tp953
I0
s(I24
I7
tp954
I0
s(I23
I20
tp955
I0
s(I12
I26
tp956
I0
s(I1
I27
tp957
I0
s(I25
I6
tp958
I0
s(I13
I27
tp959
I0
s(I2
I0
tp960
I0
s(I14
I32
tp961
I0
s(I3
I29
tp962
I0
s(I4
I30
tp963
I0
s(I19
I30
tp964
I0
sa(I8
I16
tp965
a.