(lp1
(dp2
(I11
I16
tp3
I2
s(I5
I14
tp4
I2
s(I11
I17
tp5
I2
s(I7
I15
tp6
I2
s(I9
I15
tp7
I2
s(I20
I2
tp8
I3
s(I4
I15
tp9
I2
s(I10
I15
tp10
I2
s(I5
I15
tp11
I2
s(I11
I14
tp12
I2
s(I11
I15
tp13
I2
s(I11
I13
tp14
I2
s(I6
I15
tp15
I2
s(I8
I15
tp16
I2
s(I6
I14
tp17
I2
sa(I20
I2
tp18
a.