(lp1
(dp2
(I11
I16
tp3
I2
s(I4
I18
tp4
I2
s(I7
I16
tp5
I2
s(I11
I14
tp6
I2
s(I9
I18
tp7
I2
s(I7
I15
tp8
I2
s(I5
I18
tp9
I2
s(I10
I18
tp10
I2
s(I4
I13
tp11
I2
s(I11
I18
tp12
I2
s(I11
I13
tp13
I2
s(I7
I14
tp14
I2
s(I6
I18
tp15
I2
s(I4
I14
tp16
I2
s(I7
I18
tp17
I2
s(I4
I16
tp18
I2
s(I11
I17
tp19
I2
s(I20
I2
tp20
I3
s(I4
I15
tp21
I2
s(I4
I17
tp22
I2
s(I8
I18
tp23
I2
s(I7
I17
tp24
I2
s(I11
I15
tp25
I2
sa(I20
I2
tp26
a.