(lp1
(dp2
(I14
I17
tp3
I2
s(I12
I1
tp4
I2
s(I16
I9
tp5
I2
s(I6
I28
tp6
I2
s(I18
I4
tp7
I2
s(I7
I25
tp8
I2
s(I13
I17
tp9
I2
s(I12
I31
tp10
I2
s(I4
I2
tp11
I2
s(I3
I7
tp12
I2
s(I6
I7
tp13
I2
s(I4
I19
tp14
I2
s(I6
I10
tp15
I2
s(I7
I19
tp16
I2
s(I14
I1
tp17
I2
s(I1
I28
tp18
I2
s(I15
I4
tp19
I2
s(I12
I28
tp20
I2
s(I1
I1
tp21
I2
s(I13
I29
tp22
I2
s(I7
I10
tp23
I2
s(I6
I22
tp24
I2
s(I14
I24
tp25
I2
s(I4
I16
tp26
I2
s(I15
I29
tp27
I2
s(I12
I11
tp28
I2
s(I17
I13
tp29
I2
s(I7
I22
tp30
I2
s(I15
I1
tp31
I2
s(I12
I22
tp32
I2
s(I17
I18
tp33
I2
s(I4
I15
tp34
I2
s(I3
I1
tp35
I2
s(I16
I18
tp36
I2
s(I4
I26
tp37
I2
s(I14
I21
tp38
I2
s(I4
I21
tp39
I2
s(I15
I16
tp40
I2
s(I12
I8
tp41
I2
s(I1
I21
tp42
I2
s(I15
I13
tp43
I2
s(I12
I27
tp44
I2
s(I1
I26
tp45
I2
s(I17
I29
tp46
I2
s(I2
I1
tp47
I2
s(I1
I15
tp48
I2
s(I5
I1
tp49
I2
s(I12
I2
tp50
I2
s(I7
I15
tp51
I2
s(I1
I16
tp52
I2
s(I7
I1
tp53
I2
s(I16
I29
tp54
I2
s(I17
I24
tp55
I2
s(I1
I20
tp56
I2
s(I18
I24
tp57
I2
s(I4
I1
tp58
I2
s(I4
I28
tp59
I2
s(I6
I13
tp60
I2
s(I16
I4
tp61
I2
s(I12
I7
tp62
I2
s(I1
I7
tp63
I2
s(I16
I23
tp64
I2
s(I1
I19
tp65
I2
s(I12
I29
tp66
I2
s(I18
I21
tp67
I2
s(I2
I7
tp68
I2
s(I16
I13
tp69
I2
s(I6
I1
tp70
I2
s(I5
I7
tp71
I2
s(I12
I4
tp72
I2
s(I15
I9
tp73
I2
s(I13
I9
tp74
I2
s(I12
I23
tp75
I2
s(I1
I3
tp76
I2
s(I4
I8
tp77
I2
s(I5
I13
tp78
I2
s(I4
I27
tp79
I2
s(I7
I21
tp80
I2
s(I4
I22
tp81
I2
s(I14
I9
tp82
I2
s(I12
I9
tp83
I2
s(I18
I1
tp84
I2
s(I7
I20
tp85
I2
s(I2
I19
tp86
I2
s(I1
I25
tp87
I2
s(I3
I10
tp88
I2
s(I1
I14
tp89
I2
s(I4
I13
tp90
I2
s(I2
I13
tp91
I2
s(I12
I3
tp92
I2
s(I15
I22
tp93
I2
s(I18
I9
tp94
I2
s(I18
I2
tp95
I2
s(I7
I27
tp96
I2
s(I7
I13
tp97
I2
s(I7
I7
tp98
I2
s(I7
I28
tp99
I2
s(I1
I9
tp100
I2
s(I18
I3
tp101
I2
s(I14
I29
tp102
I2
s(I7
I26
tp103
I2
s(I15
I21
tp104
I2
s(I17
I21
tp105
I2
s(I12
I30
tp106
I2
s(I2
I25
tp107
I2
s(I18
I18
tp108
I2
s(I7
I16
tp109
I2
s(I3
I4
tp110
I2
s(I2
I4
tp111
I2
s(I5
I9
tp112
I2
s(I4
I7
tp113
I2
s(I3
I25
tp114
I2
s(I7
I14
tp115
I2
s(I15
I3
tp116
I2
s(I16
I21
tp117
I2
s(I12
I16
tp118
I2
s(I13
I21
tp119
I2
s(I1
I2
tp120
I2
s(I4
I9
tp121
I2
s(I1
I8
tp122
I2
s(I15
I18
tp123
I2
s(I14
I14
tp124
I2
s(I5
I22
tp125
I2
s(I12
I10
tp126
I2
s(I15
I15
tp127
I2
s(I12
I21
tp128
I2
s(I18
I13
tp129
I2
s(I13
I24
tp130
I2
s(I3
I13
tp131
I2
s(I1
I13
tp132
I2
s(I4
I14
tp133
I2
s(I2
I10
tp134
I2
s(I4
I25
tp135
I2
s(I3
I19
tp136
I2
s(I5
I28
tp137
I2
s(I4
I20
tp138
I2
s(I17
I4
tp139
I2
s(I15
I23
tp140
I2
s(I13
I1
tp141
I2
s(I12
I15
tp142
I2
s(I1
I22
tp143
I2
s(I17
I9
tp144
I2
s(I15
I2
tp145
I2
s(I13
I14
tp146
I2
s(I1
I27
tp147
I2
s(I18
I29
tp148
I2
s(I4
I3
tp149
I2
saNa.